(dp0
S'452'
p1
F2.894238683127572
sS'507'
p2
F3.6042780748663104
sS'344'
p3
F3.697004608294931
sS'0'
p4
I0
sS'346'
p5
F3.051546391752577
sS'347'
p6
F2.435185185185185
sS'340'
p7
F2.938202247191011
sS'341'
p8
F3.0510204081632653
sS'342'
p9
F3.703240058910162
sS'343'
p10
F3.1739130434782608
sS'810'
p11
F2.980952380952381
sS'811'
p12
F2.9771388985105647
sS'812'
p13
F3.221311475409836
sS'813'
p14
F3.2746478873239435
sS'348'
p15
F3.4052908391553496
sS'349'
p16
F2.4682675814751285
sS'816'
p17
F3.5247524752475248
sS'817'
p18
F3.5470103092783507
sS'595'
p19
F4.167077681874229
sS'719'
p20
F2.993857493857494
sS'718'
p21
F3.3239839725243274
sS'717'
p22
F2.893900563813429
sS'716'
p23
F3.235294117647059
sS'715'
p24
F3.667992047713718
sS'714'
p25
F2.1710526315789473
sS'713'
p26
F3.0692307692307694
sS'712'
p27
F4.132516703786192
sS'711'
p28
F3.6139304830950607
sS'662'
p29
F3.589008677359979
sS'618'
p30
F2.6121883656509697
sS'915'
p31
F2.8372093023255816
sS'914'
p32
F3.057377049180328
sS'423'
p33
F2.983108108108108
sS'422'
p34
F3.395416515096399
sS'911'
p35
F2.9591836734693877
sS'619'
p36
F3.8646616541353382
sS'910'
p37
F3.161764705882353
sS'427'
p38
F2.8690787019768744
sS'298'
p39
F3.101098901098901
sS'299'
p40
F3.7066437928883342
sS'296'
p41
F2.913793103448276
sS'297'
p42
F2.878834355828221
sS'294'
p43
F3.1515151515151514
sS'426'
p44
F3.246857955892815
sS'292'
p45
F3.857677902621723
sS'293'
p46
F3.7598039215686274
sS'290'
p47
F3.584499800633775
sS'291'
p48
F2.2222222222222223
sS'591'
p49
F2.8910505836575875
sS'590'
p50
F3.3954802259887007
sS'593'
p51
F2.7282608695652173
sS'592'
p52
F2.0
sS'199'
p53
F3.8931820101945984
sS'594'
p54
F2.561224489795918
sS'597'
p55
F2.4583333333333335
sS'596'
p56
F2.9732988802756246
sS'195'
p57
F3.2972972972972974
sS'194'
p58
F3.134674922600619
sS'197'
p59
F3.478931823775535
sS'196'
p60
F3.4675324675324677
sS'191'
p61
F3.932202188006483
sS'190'
p62
F2.0961538461538463
sS'193'
p63
F2.975206611570248
sS'192'
p64
F3.2
sS'270'
p65
F4.289368944031183
sS'271'
p66
F3.1046025104602513
sS'272'
p67
F2.9193548387096775
sS'273'
p68
F3.3624754113716553
sS'274'
p69
F2.7674418604651163
sS'275'
p70
F3.633405639913232
sS'276'
p71
F2.0782608695652174
sS'277'
p72
F3.445859872611465
sS'278'
p73
F2.144578313253012
sS'279'
p74
F3.1696065128900948
sS'18'
p75
F3.7843685879500093
sS'524'
p76
F3.276401564537158
sS'525'
p77
F2.0344827586206895
sS'526'
p78
F2.9139414802065406
sS'527'
p79
F2.2767527675276753
sS'520'
p80
F3.874285714285714
sS'521'
p81
F2.7045454545454546
sS'522'
p82
F3.303125
sS'523'
p83
F3.0340136054421767
sS'599'
p84
F3.502565154935358
sS'528'
p85
F2.9830955225978775
sS'529'
p86
F3.3640081799591
sS'449'
p87
F2.988888888888889
sS'448'
p88
F3.201058201058201
sS'443'
p89
F3.973709434478981
sS'442'
p90
F3.9341293689704253
sS'441'
p91
F3.7705882352941176
sS'440'
p92
F2.925233644859813
sS'447'
p93
F3.4175824175824174
sS'446'
p94
F2.8372739916550764
sS'445'
p95
F3.539686753384656
sS'444'
p96
F3.1666666666666665
sS'47'
p97
F3.266382978723404
sS'108'
p98
F3.167315175097276
sS'109'
p99
F2.677064220183486
sS'102'
p100
F2.7363636363636363
sS'103'
p101
F3.6555023923444976
sS'100'
p102
F2.6538461538461537
sS'101'
p103
F3.3727272727272726
sS'106'
p104
F4.097872340425532
sS'107'
p105
F3.3522316043425815
sS'104'
p106
F3.6977142857142855
sS'105'
p107
F3.1302083333333335
sS'902'
p108
F2.365
sS'903'
p109
F3.175925925925926
sS'900'
p110
F3.9320926903462468
sS'901'
p111
F3.6717428087986463
sS'906'
p112
F3.417056074766355
sS'907'
p113
F4.0161224489795915
sS'904'
p114
F2.4545454545454546
sS'905'
p115
F2.0
sS'33'
p116
F4.168650217706822
sS'32'
p117
F4.071736785329018
sS'908'
p118
F4.191339010690342
sS'909'
p119
F3.026627218934911
sS'37'
p120
F3.9893238434163703
sS'36'
p121
F3.020234291799787
sS'35'
p122
F3.1454112038140645
sS'34'
p123
F2.712962962962963
sS'641'
p124
F3.653044203502919
sS'640'
p125
F3.1441647597254003
sS'643'
p126
F3.145731707317073
sS'642'
p127
F3.720064724919094
sS'645'
p128
F3.942084052964882
sS'644'
p129
F2.993377483443709
sS'438'
p130
F3.030980603448276
sS'646'
p131
F3.872118959107807
sS'436'
p132
F3.8146341463414632
sS'648'
p133
F3.5
sS'434'
p134
F3.4782608695652173
sS'435'
p135
F2.8658892128279883
sS'432'
p136
F3.98894620486367
sS'433'
p137
F3.5554117295628798
sS'430'
p138
F4.047865459249676
sS'431'
p139
F3.5421861409104087
sS'826'
p140
F3.13953488372093
sS'339'
p141
F3.7848101265822787
sS'338'
p142
F3.8894436519258204
sS'335'
p143
F2.1812080536912752
sS'334'
p144
F3.55764263322884
sS'337'
p145
F2.972961186218927
sS'336'
p146
F3.170854271356784
sS'331'
p147
F3.6220238726228082
sS'330'
p148
F3.4609438567941417
sS'333'
p149
F3.786259541984733
sS'332'
p150
F2.2550335570469797
sS'559'
p151
F3.5478260869565217
sS'558'
p152
F3.266897746967071
sS'854'
p153
F2.1656050955414012
sS'818'
p154
F3.473859844271413
sS'856'
p155
F2.581818181818182
sS'857'
p156
F3.722932078009415
sS'850'
p157
F3.42291169451074
sS'851'
p158
F3.8919123505976096
sS'852'
p159
F2.9964850615114234
sS'345'
p160
F4.111377245508982
sS'858'
p161
F3.217391304347826
sS'859'
p162
F3.4597327555074036
sS'555'
p163
F4.008571428571429
sS'6'
p164
F3.084396467124632
sS'39'
p165
F2.4361702127659575
sS'43'
p166
F2.5714285714285716
sS'99'
p167
F2.4206349206349205
sS'98'
p168
F3.9153846153846152
sS'91'
p169
F3.8959435626102294
sS'90'
p170
F3.496
sS'93'
p171
F2.689655172413793
sS'92'
p172
F3.5652173913043477
sS'95'
p173
F2.5828877005347595
sS'94'
p174
F3.6842105263157894
sS'97'
p175
F3.87182829336114
sS'96'
p176
F3.3688524590163933
sS'814'
p177
F3.386946386946387
sS'815'
p178
F3.1338912133891212
sS'740'
p179
F2.8015873015873014
sS'741'
p180
F3.4009546539379474
sS'742'
p181
F2.841860465116279
sS'743'
p182
F3.1982570806100217
sS'744'
p183
F2.8773584905660377
sS'745'
p184
F2.2920353982300883
sS'746'
p185
F3.5250549177270276
sS'747'
p186
F3.7403846153846154
sS'748'
p187
F3.7415452295848226
sS'749'
p188
F2.2354009077155825
sS'557'
p189
F2.5260115606936417
sS'556'
p190
F2.9602543720190777
sS'551'
p191
F3.2756038321414116
sS'550'
p192
F3.458650176051129
sS'553'
p193
F3.1752921535893157
sS'552'
p194
F3.0136986301369864
sS'238'
p195
F3.6783725910064238
sS'239'
p196
F3.7680365296803653
sS'234'
p197
F2.9690721649484537
sS'235'
p198
F3.024886877828054
sS'236'
p199
F2.32
sS'237'
p200
F3.3994252873563218
sS'230'
p201
F3.0952380952380953
sS'231'
p202
F2.9427083333333335
sS'232'
p203
F3.182676848874598
sS'233'
p204
F3.2416267942583734
sS'1'
p205
F3.749542961608775
sS'614'
p206
F3.084507042253521
sS'155'
p207
F3.5969387755102042
sS'146'
p208
F2.420765027322404
sS'147'
p209
F2.16793893129771
sS'144'
p210
F3.2006920415224913
sS'145'
p211
F3.074725274725275
sS'142'
p212
F2.8098159509202456
sS'143'
p213
F3.853031645899588
sS'140'
p214
F2.5294117647058822
sS'141'
p215
F2.9761904761904763
sS'612'
p216
F3.0551181102362204
sS'613'
p217
F3.168965517241379
sS'610'
p218
F2.519230769230769
sS'611'
p219
F2.0342465753424657
sS'616'
p220
F3.324561403508772
sS'617'
p221
F3.828930817610063
sS'148'
p222
F3.304947283049473
sS'149'
p223
F3.0161290322580645
sS'951'
p224
F3.5120481927710845
sS'710'
p225
F4.143968871595331
sS'948'
p226
F2.7426470588235294
sS'949'
p227
F3.3711217183770885
sS'946'
p228
F2.482269503546099
sS'947'
p229
F3.658869395711501
sS'944'
p230
F2.6741573033707864
sS'945'
p231
F3.017699115044248
sS'942'
p232
F3.0190534726490474
sS'943'
p233
F3.941814033086138
sS'940'
p234
F3.68073006932409
sS'941'
p235
F2.1614906832298137
sS'689'
p236
F3.4156889809063724
sS'688'
p237
F3.1728395061728394
sS'685'
p238
F3.3960489181561617
sS'684'
p239
F2.6091954022988504
sS'687'
p240
F3.037593984962406
sS'686'
p241
F3.070011589065376
sS'681'
p242
F3.493881546744983
sS'680'
p243
F2.9618094178717094
sS'683'
p244
F2.9347826086956523
sS'682'
p245
F3.7444397817876625
sS'623'
p246
F3.0376569037656904
sS'819'
p247
F3.137780311668567
sS'459'
p248
F3.4776509420987485
sS'133'
p249
F3.737807257120562
sS'132'
p250
F3.0746987951807228
sS'131'
p251
F2.6950354609929077
sS'130'
p252
F2.2325581395348837
sS'137'
p253
F2.392156862745098
sS'136'
p254
F2.975
sS'135'
p255
F4.138020833333333
sS'134'
p256
F2.1313131313131315
sS'494'
p257
F4.001485453425601
sS'495'
p258
F3.098330241187384
sS'496'
p259
F3.7106382978723405
sS'497'
p260
F3.4782608695652173
sS'490'
p261
F2.8717067583046965
sS'491'
p262
F3.3680555555555554
sS'492'
p263
F2.9611143354614047
sS'493'
p264
F2.6037735849056602
sS'24'
p265
F2.9939984996249063
sS'25'
p266
F3.9701739850869924
sS'26'
p267
F2.7937212079849854
sS'27'
p268
F3.5274725274725274
sS'20'
p269
F3.146551724137931
sS'21'
p270
F3.463302752293578
sS'22'
p271
F2.2463054187192117
sS'23'
p272
F3.55609756097561
sS'927'
p273
F3.4516129032258065
sS'28'
p274
F3.823254175890521
sS'29'
p275
F3.598470363288719
sS'407'
p276
F2.680365296803653
sS'406'
p277
F3.7627578830450252
sS'405'
p278
F3.7515798342929365
sS'404'
p279
F2.4912663755458517
sS'403'
p280
F3.090909090909091
sS'402'
p281
F3.2459016393442623
sS'401'
p282
F3.6346272335181764
sS'400'
p283
F3.8326563769293256
sS'933'
p284
F4.0494296577946765
sS'932'
p285
F2.2941176470588234
sS'931'
p286
F3.0541735765616362
sS'930'
p287
F3.1865203761755487
sS'937'
p288
F3.7195981596386813
sS'936'
p289
F3.088757396449704
sS'409'
p290
F3.548098434004474
sS'408'
p291
F3.4055299539170507
sS'628'
p292
F3.51355421686747
sS'414'
p293
F2.936974789915966
sS'758'
p294
F3.514344301565704
sS'183'
p295
F3.0122699386503067
sS'415'
p296
F1.7619047619047619
sS'379'
p297
F2.632911392405063
sS'378'
p298
F2.83787416004887
sS'829'
p299
F3.1873075230972283
sS'828'
p300
F3.0046082949308754
sS'825'
p301
F4.1091621253406
sS'824'
p302
F3.781449893390192
sS'373'
p303
F2.776470588235294
sS'372'
p304
F2.391891891891892
sS'821'
p305
F2.7058823529411766
sS'820'
p306
F1.9555555555555555
sS'377'
p307
F2.5357142857142856
sS'376'
p308
F3.4248704663212437
sS'708'
p309
F3.387546455561542
sS'709'
p310
F3.743801652892562
sS'704'
p311
F3.037037037037037
sS'705'
p312
F3.6400465356773526
sS'706'
p313
F3.527736131934033
sS'707'
p314
F3.507908611599297
sS'700'
p315
F3.6125106746370625
sS'701'
p316
F1.9161490683229814
sS'702'
p317
F2.9282296650717705
sS'703'
p318
F3.7061855670103094
sS'393'
p319
F3.3227949213823256
sS'392'
p320
F3.2333333333333334
sS'88'
p321
F3.8353783231083844
sS'89'
p322
F2.6913439635535306
sS'397'
p323
F3.929144385026738
sS'396'
p324
F3.1029411764705883
sS'395'
p325
F3.9879253567508233
sS'394'
p326
F3.5720470006184293
sS'82'
p327
F3.042016806722689
sS'83'
p328
F3.729331339457381
sS'80'
p329
F2.7992700729927007
sS'81'
p330
F3.4395516413130505
sS'86'
p331
F1.9545454545454546
sS'87'
p332
F2.8119658119658117
sS'84'
p333
F3.2212936046511627
sS'85'
p334
F4.2518796992481205
sS'797'
p335
F3.090625
sS'796'
p336
F2.939866369710468
sS'795'
p337
F3.1421800947867298
sS'794'
p338
F3.11619283065513
sS'793'
p339
F3.4927536231884058
sS'792'
p340
F2.8583333333333334
sS'791'
p341
F3.5283505154639174
sS'790'
p342
F2.8
sS'19'
p343
F3.324675324675325
sS'799'
p344
F4.066123188405797
sS'798'
p345
F3.8860085139890255
sS'7'
p346
F2.129032258064516
sS'170'
p347
F3.181395348837209
sS'607'
p348
F3.543282659005666
sS'586'
p349
F3.3184931506849313
sS'587'
p350
F3.768939393939394
sS'584'
p351
F3.058531746031746
sS'585'
p352
F3.8144225920322743
sS'582'
p353
F3.0140081337550835
sS'583'
p354
F3.303225806451613
sS'580'
p355
F3.0756200846944948
sS'581'
p356
F3.3095238095238093
sS'588'
p357
F3.4481246955674623
sS'589'
p358
F2.347245409015025
sS'245'
p359
F2.78021978021978
sS'244'
p360
F3.8666666666666667
sS'247'
p361
F3.0321592649310873
sS'246'
p362
F3.1160092807424595
sS'241'
p363
F4.157900839478688
sS'240'
p364
F3.9484953703703702
sS'243'
p365
F3.0252100840336134
sS'242'
p366
F3.911157894736842
sS'615'
p367
F3.495503336234407
sS'249'
p368
F3.182741116751269
sS'248'
p369
F3.6333387437104365
sS'295'
p370
F3.314671547972646
sS'418'
p371
F2.7273168364871423
sS'498'
p372
F4.067375886524823
sS'419'
p373
F3.906821963394343
sS'519'
p374
F3.7360703812316713
sS'518'
p375
F3.8037918871252203
sS'511'
p376
F2.777583187390543
sS'510'
p377
F3.239130434782609
sS'513'
p378
F2.0919811320754715
sS'512'
p379
F2.8316498316498318
sS'515'
p380
F1.2878787878787878
sS'514'
p381
F3.8062283737024223
sS'517'
p382
F3.478148317344297
sS'516'
p383
F3.7813289727961945
sS'458'
p384
F3.546478873239437
sS'622'
p385
F2.9769452449567724
sS'621'
p386
F3.9349859681945745
sS'620'
p387
F3.565671641791045
sS'627'
p388
F2.9591836734693877
sS'626'
p389
F3.65993265993266
sS'625'
p390
F1.50503355704698
sS'624'
p391
F3.2522851919561244
sS'450'
p392
F3.3503649635036497
sS'451'
p393
F4.16546762589928
sS'629'
p394
F3.572698036560596
sS'453'
p395
F3.5492957746478875
sS'454'
p396
F3.933442444080742
sS'455'
p397
F3.788265306122449
sS'456'
p398
F3.6787755102040816
sS'457'
p399
F3.8743855021325433
sS'979'
p400
F2.9375
sS'179'
p401
F2.458041958041958
sS'178'
p402
F3.372863801139306
sS'177'
p403
F2.680497925311203
sS'176'
p404
F3.2666666666666666
sS'175'
p405
F4.003847429519071
sS'174'
p406
F3.319371727748691
sS'173'
p407
F3.538908765652952
sS'172'
p408
F3.127329192546584
sS'171'
p409
F3.7424878836833604
sS'198'
p410
F3.082474226804124
sS'977'
p411
F2.7880539499036607
sS'976'
p412
F3.6566265060240966
sS'975'
p413
F2.0
sS'974'
p414
F3.6166134185303513
sS'973'
p415
F3.64
sS'972'
p416
F3.6184210526315788
sS'971'
p417
F3.8087344596748487
sS'970'
p418
F3.019704433497537
sS'654'
p419
F2.5647058823529414
sS'253'
p420
F4.0679207920792075
sS'978'
p421
F3.3286031042128603
sS'656'
p422
F2.7394957983193278
sS'657'
p423
F4.045077720207254
sS'180'
p424
F3.833746898263027
sS'181'
p425
F2.6000562113546937
sS'652'
p426
F3.3201403782413728
sS'653'
p427
F2.610294117647059
sS'184'
p428
F3.338345864661654
sS'185'
p429
F3.0574662603395732
sS'186'
p430
F3.3780068728522337
sS'188'
p431
F2.7618673989799922
sS'189'
p432
F3.346466718540001
sS'658'
p433
F3.6329174336946886
sS'187'
p434
F3.012170183051524
sS'650'
p435
F2.6765375854214124
sS'651'
p436
F2.9375
sS'602'
p437
F2.8129194630872485
sS'869'
p438
F3.088495575221239
sS'868'
p439
F3.4764150943396226
sS'13'
p440
F4.552
sS'12'
p441
F3.4175824175824174
sS'15'
p442
F3.286206896551724
sS'14'
p443
F3.0254237288135593
sS'17'
p444
F2.90320765334834
sS'16'
p445
F3.0985550203779177
sS'861'
p446
F3.945898778359511
sS'860'
p447
F2.627906976744186
sS'863'
p448
F3.545762711864407
sS'862'
p449
F3.4981137925688595
sS'865'
p450
F3.772549019607843
sS'864'
p451
F2.708920187793427
sS'867'
p452
F2.8962962962962964
sS'866'
p453
F3.3806060606060604
sS'354'
p454
F2.2816901408450705
sS'659'
p455
F2.750418200066912
sS'883'
p456
F3.5652557319223988
sS'568'
p457
F2.9565217391304346
sS'881'
p458
F3.110424028268551
sS'880'
p459
F3.9323758228605628
sS'887'
p460
F3.107883817427386
sS'886'
p461
F4.18601182255124
sS'885'
p462
F3.294372294372294
sS'752'
p463
F4.254008536163341
sS'889'
p464
F4.052848318462594
sS'888'
p465
F2.614678899082569
sS'756'
p466
F2.5632183908045976
sS'63'
p467
F3.25
sS'355'
p468
F2.0
sS'322'
p469
F2.589086859688196
sS'323'
p470
F2.419943820224719
sS'320'
p471
F2.814516129032258
sS'321'
p472
F2.7222222222222223
sS'326'
p473
F3.290909090909091
sS'327'
p474
F3.1853932584269664
sS'324'
p475
F3.061381074168798
sS'325'
p476
F4.19536128456735
sS'328'
p477
F2.8984771573604062
sS'329'
p478
F3.5878580267407116
sS'759'
p479
F3.198860939724727
sS'201'
p480
F3.4174008810572687
sS'200'
p481
F3.007751937984496
sS'777'
p482
F3.7859477124183005
sS'776'
p483
F2.9734513274336285
sS'205'
p484
F3.3021442495126707
sS'204'
p485
F2.708695652173913
sS'773'
p486
F2.911654135338346
sS'772'
p487
F2.6666666666666665
sS'209'
p488
F4.160759204207638
sS'208'
p489
F3.3588342440801457
sS'779'
p490
F2.5175644028103044
sS'778'
p491
F3.9047619047619047
sS'77'
p492
F2.852772466539197
sS'76'
p493
F4.090385917400136
sS'75'
p494
F2.5707762557077625
sS'74'
p495
F3.185567010309278
sS'73'
p496
F3.891566265060241
sS'72'
p497
F3.1452513966480447
sS'71'
p498
F3.7700192184497117
sS'70'
p499
F2.7317784256559765
sS'655'
p500
F3.511627906976744
sS'79'
p501
F3.765381218722402
sS'78'
p502
F2.9416494845360823
sS'2'
p503
F3.5586206896551724
sS'806'
p504
F3.4899598393574296
sS'359'
p505
F4.1543668122270745
sS'358'
p506
F3.538896276595745
sS'50'
p507
F3.027439024390244
sS'669'
p508
F2.3797468354430378
sS'668'
p509
F3.8730358265241986
sS'667'
p510
F3.7916666666666665
sS'666'
p511
F3.245014245014245
sS'665'
p512
F2.6956521739130435
sS'664'
p513
F2.3417366946778713
sS'663'
p514
F4.172626387176326
sS'214'
p515
F2.9193548387096775
sS'661'
p516
F3.2542865446091254
sS'660'
p517
F3.7778472188837076
sS'215'
p518
F4.062575210589651
sS'692'
p519
F3.5095954672840257
sS'693'
p520
F3.0552784704904408
sS'690'
p521
F3.976318622174381
sS'691'
p522
F2.9893617021276597
sS'696'
p523
F3.4306456160135324
sS'697'
p524
F3.287081339712919
sS'694'
p525
F3.759322033898305
sS'695'
p526
F2.8433734939759034
sS'698'
p527
F2.4936708860759493
sS'699'
p528
F3.83008356545961
sS'542'
p529
F1.8830409356725146
sS'543'
p530
F3.259718775847808
sS'540'
p531
F3.3950617283950617
sS'541'
p532
F2.4711538461538463
sS'546'
p533
F2.6025641025641026
sS'547'
p534
F3.1969949916527547
sS'544'
p535
F3.65359477124183
sS'545'
p536
F3.4792899408284024
sS'8'
p537
F3.1898054996646548
sS'548'
p538
F3.0071068613515957
sS'549'
p539
F2.638888888888889
sS'598'
p540
F3.360323886639676
sS'995'
p541
F1.7211538461538463
sS'994'
p542
F3.2199501999547273
sS'997'
p543
F3.251655629139073
sS'996'
p544
F4.031539888682746
sS'991'
p545
F3.6545961002785514
sS'990'
p546
F3.7714672075726843
sS'993'
p547
F3.052142643092598
sS'992'
p548
F3.9344605475040257
sS'999'
p549
F2.7275086505190314
sS'998'
p550
F3.3161434977578477
sS'120'
p551
F2.424778761061947
sS'121'
p552
F3.6161616161616164
sS'122'
p553
F2.911886457717327
sS'123'
p554
F2.8333333333333335
sS'124'
p555
F2.2662721893491122
sS'125'
p556
F3.3707345286292654
sS'126'
p557
F3.201858108108108
sS'127'
p558
F2.630391506303915
sS'128'
p559
F3.2158273381294964
sS'129'
p560
F2.1481481481481484
sS'219'
p561
F2.6036036036036037
sS'259'
p562
F3.220319634703196
sS'563'
p563
F3.496496404204315
sS'928'
p564
F2.705539358600583
sS'929'
p565
F3.4229074889867843
sS'416'
p566
F2.987562189054726
sS'417'
p567
F3.9310580204778156
sS'410'
p568
F3.904856293359762
sS'411'
p569
F2.916256157635468
sS'412'
p570
F3.125
sS'413'
p571
F3.4105787555585274
sS'920'
p572
F2.4601769911504423
sS'921'
p573
F3.3299363057324842
sS'922'
p574
F2.8669950738916254
sS'923'
p575
F3.415929203539823
sS'924'
p576
F2.795698924731183
sS'925'
p577
F3.6419753086419755
sS'926'
p578
F2.1926605504587156
sS'499'
p579
F3.0449205252246028
sS'319'
p580
F3.0252100840336134
sS'318'
p581
F2.336842105263158
sS'313'
p582
F3.689345970424398
sS'312'
p583
F3.710127220245277
sS'311'
p584
F3.5778941010670424
sS'310'
p585
F3.3617977528089886
sS'317'
p586
F3.0
sS'316'
p587
F4.301984126984127
sS'315'
p588
F3.293577981651376
sS'314'
p589
F3.414396887159533
sS'139'
p590
F2.5104166666666665
sS'832'
p591
F3.785346307956497
sS'833'
p592
F3.516949152542373
sS'830'
p593
F2.857142857142857
sS'138'
p594
F3.9422340602630266
sS'836'
p595
F3.5486725663716814
sS'837'
p596
F3.9340836012861735
sS'834'
p597
F2.728494623655914
sS'835'
p598
F3.17425431711146
sS'838'
p599
F2.5066889632107023
sS'839'
p600
F4.115594329334788
sS'3'
p601
F3.6411530815109345
sS'203'
p602
F3.15625
sS'368'
p603
F3.411469534050179
sS'369'
p604
F2.860706860706861
sS'366'
p605
F3.4971428571428573
sS'367'
p606
F3.139663906086677
sS'364'
p607
F2.934959349593496
sS'365'
p608
F3.2153846153846155
sS'362'
p609
F2.513211382113821
sS'363'
p610
F2.9543517954960437
sS'360'
p611
F2.393993724787091
sS'361'
p612
F3.635833635526793
sS'10'
p613
F3.180722891566265
sS'218'
p614
F3.226086956521739
sS'952'
p615
F3.9846473029045644
sS'882'
p616
F2.841463414634146
sS'380'
p617
F3.0926275992438566
sS'381'
p618
F3.392042042042042
sS'382'
p619
F3.0822784810126582
sS'383'
p620
F2.7443946188340806
sS'384'
p621
F3.737134909596662
sS'385'
p622
F3.6277754056362084
sS'386'
p623
F2.949625595643295
sS'387'
p624
F3.5153061224489797
sS'388'
p625
F2.3225806451612905
sS'389'
p626
F3.112531969309463
sS'784'
p627
F3.5267857142857144
sS'785'
p628
F3.1550387596899223
sS'786'
p629
F3.375984251968504
sS'787'
p630
F2.5
sS'780'
p631
F3.831234256926952
sS'781'
p632
F3.5816464237516867
sS'782'
p633
F2.442105263157895
sS'783'
p634
F3.365752285951787
sS'788'
p635
F3.764570198369983
sS'789'
p636
F3.7942099755842342
sS'151'
p637
F1.9545454545454546
sS'579'
p638
F3.9838788470933073
sS'578'
p639
F2.405982905982906
sS'150'
p640
F2.883018867924528
sS'573'
p641
F3.2941176470588234
sS'572'
p642
F3.244642857142857
sS'571'
p643
F3.9625852536943267
sS'570'
p644
F2.9160305343511452
sS'577'
p645
F4.193409742120344
sS'576'
p646
F3.839258114374034
sS'575'
p647
F4.053722902921772
sS'574'
p648
F3.185185185185185
sS'60'
p649
F2.1491525423728812
sS'61'
p650
F2.9523809523809526
sS'62'
p651
F3.6241379310344826
sS'606'
p652
F3.343601895734597
sS'64'
p653
F2.4210526315789473
sS'65'
p654
F2.3294573643410854
sS'66'
p655
F2.2951807228915664
sS'67'
p656
F2.557093425605536
sS'252'
p657
F3.3904539303727397
sS'69'
p658
F3.293103448275862
sS'250'
p659
F3.4385510996119018
sS'251'
p660
F3.8803986710963456
sS'256'
p661
F3.440720808871494
sS'257'
p662
F3.9115765617575025
sS'254'
p663
F2.042105263157895
sS'154'
p664
F2.9430379746835444
sS'603'
p665
F3.576059850374065
sS'884'
p666
F2.8526315789473684
sS'939'
p667
F3.888198757763975
sS'731'
p668
F2.5461384152457374
sS'730'
p669
F3.8390778871978513
sS'733'
p670
F3.4058078927773643
sS'732'
p671
F3.2251268045259462
sS'735'
p672
F3.1269035532994924
sS'734'
p673
F3.8300819061801934
sS'737'
p674
F3.3271028037383177
sS'736'
p675
F2.1587301587301586
sS'506'
p676
F2.7961783439490446
sS'738'
p677
F2.7711864406779663
sS'504'
p678
F4.061032863849765
sS'505'
p679
F3.1397894736842105
sS'502'
p680
F3.7013316423589093
sS'503'
p681
F3.6175298804780875
sS'500'
p682
F3.6353383458646618
sS'501'
p683
F3.8006456288293036
sS'630'
p684
F2.63265306122449
sS'631'
p685
F3.6597180383178696
sS'632'
p686
F2.9793956043956045
sS'633'
p687
F3.218527315914489
sS'469'
p688
F2.780952380952381
sS'468'
p689
F3.517040470081933
sS'636'
p690
F3.497849697499818
sS'637'
p691
F3.4985632183908044
sS'465'
p692
F2.92
sS'464'
p693
F2.7560975609756095
sS'467'
p694
F3.56303317535545
sS'466'
p695
F3.748618784530387
sS'461'
p696
F3.46875
sS'460'
p697
F2.1947674418604652
sS'463'
p698
F4.092738407699038
sS'462'
p699
F4.038560411311054
sS'38'
p700
F2.0511221945137157
sS'168'
p701
F3.242424242424242
sS'169'
p702
F3.388059701492537
sS'164'
p703
F2.6273006134969323
sS'165'
p704
F3.9169572798605055
sS'166'
p705
F3.556332803391627
sS'167'
p706
F4.0922303573379954
sS'160'
p707
F3.007786429365962
sS'161'
p708
F3.8536209553158707
sS'162'
p709
F2.959915611814346
sS'163'
p710
F2.378238341968912
sS'964'
p711
F3.6776773296244785
sS'965'
p712
F3.567901234567901
sS'966'
p713
F3.2857142857142856
sS'967'
p714
F3.596997690531178
sS'960'
p715
F3.474813432835821
sS'961'
p716
F3.5405063291139243
sS'962'
p717
F3.0910543130990416
sS'963'
p718
F3.8853390511927097
sS'968'
p719
F2.6542056074766354
sS'969'
p720
F2.053030303030303
sS'935'
p721
F4.24793388429752
sS'934'
p722
F3.3931185944363103
sS'31'
p723
F3.0542986425339365
sS'30'
p724
F3.7618420274800908
sS'878'
p725
F2.4456521739130435
sS'879'
p726
F2.8820960698689957
sS'876'
p727
F3.5161290322580645
sS'877'
p728
F3.5125284738041
sS'874'
p729
F3.4215686274509802
sS'875'
p730
F3.1122448979591835
sS'872'
p731
F4.199615032659114
sS'873'
p732
F2.744922826969943
sS'870'
p733
F2.3576642335766422
sS'871'
p734
F3.9880281690140844
sS'9'
p735
F2.6210526315789475
sS'890'
p736
F3.17877094972067
sS'891'
p737
F3.682926829268293
sS'892'
p738
F3.574766355140187
sS'893'
p739
F3.8525641025641026
sS'894'
p740
F2.753509496284063
sS'647'
p741
F3.4370477568740956
sS'896'
p742
F3.429313895335534
sS'897'
p743
F3.2765458077047587
sS'898'
p744
F3.062805872756933
sS'899'
p745
F3.497354497354497
sS'439'
p746
F3.2165697674418605
sS'255'
p747
F3.142389882250327
sS'649'
p748
F3.0125
sS'437'
p749
F3.272727272727273
sS'262'
p750
F3.7103700319780724
sS'357'
p751
F3.5123780945236307
sS'356'
p752
F3.068983957219251
sS'809'
p753
F3.5455246913580245
sS'808'
p754
F3.2396983571236198
sS'353'
p755
F3.2548387096774194
sS'352'
p756
F2.563025210084034
sS'351'
p757
F2.937984496124031
sS'350'
p758
F3.7958297132927887
sS'11'
p759
F3.0303030303030303
sS'802'
p760
F3.35
sS'801'
p761
F2.6582278481012658
sS'800'
p762
F2.3766233766233764
sS'807'
p763
F3.584449526298595
sS'44'
p764
F3.6840371720974003
sS'805'
p765
F3.7905405405405403
sS'804'
p766
F3.8472906403940885
sS'216'
p767
F3.218212478920742
sS'217'
p768
F2.9529411764705884
sS'768'
p769
F3.2822458270106223
sS'769'
p770
F3.27027027027027
sS'212'
p771
F2.7786516853932586
sS'213'
p772
F3.4709936817920735
sS'210'
p773
F3.151382823871907
sS'211'
p774
F3.555045871559633
sS'762'
p775
F3.982869379014989
sS'763'
p776
F3.4907275320970044
sS'760'
p777
F3.8628651202749142
sS'761'
p778
F2.66020358700921
sS'766'
p779
F3.0592592592592593
sS'767'
p780
F3.245222929936306
sS'764'
p781
F3.7370030581039755
sS'765'
p782
F2.52073732718894
sS'40'
p783
F2.920570264765784
sS'202'
p784
F3.1047120418848166
sS'41'
p785
F1.6344086021505377
sS'831'
p786
F3.2011961355620304
sS'289'
p787
F2.334768812330009
sS'288'
p788
F3.5470383275261326
sS'4'
p789
F2.73943661971831
sS'281'
p790
F3.7550512900217594
sS'280'
p791
F3.352504638218924
sS'283'
p792
F3.706555834378921
sS'282'
p793
F3.6666666666666665
sS'285'
p794
F3.3265990862364365
sS'284'
p795
F2.2577319587628866
sS'287'
p796
F3.572
sS'286'
p797
F2.9162303664921465
sS'678'
p798
F3.3333333333333335
sS'679'
p799
F3.0568181818181817
sS'674'
p800
F3.383134738771769
sS'675'
p801
F3.201117318435754
sS'676'
p802
F3.079145728643216
sS'677'
p803
F3.7411431270666036
sS'670'
p804
F3.5124884366327476
sS'671'
p805
F3.217573221757322
sS'672'
p806
F3.072649572649573
sS'673'
p807
F3.8168168168168166
sS'263'
p808
F3.9844444444444442
sS'938'
p809
F1.9944444444444445
sS'261'
p810
F3.6901140684410647
sS'260'
p811
F3.15609756097561
sS'267'
p812
F3.6867469879518073
sS'266'
p813
F3.0555555555555554
sS'265'
p814
F3.25
sS'264'
p815
F2.888059701492537
sS'269'
p816
F3.7562770764429123
sS'268'
p817
F3.7114517583408477
sS'182'
p818
F3.0811965811965814
sS'59'
p819
F2.7892156862745097
sS'58'
p820
F3.6120080436656132
sS'55'
p821
F3.024522028262677
sS'54'
p822
F2.9874213836477987
sS'57'
p823
F3.6785513756316677
sS'56'
p824
F3.6486633933442443
sS'51'
p825
F3.566666666666667
sS'258'
p826
F2.951219512195122
sS'53'
p827
F1.6754385964912282
sS'52'
p828
F3.7571400816009324
sS'537'
p829
F3.5026737967914436
sS'536'
p830
F2.8173076923076925
sS'535'
p831
F3.4851063829787234
sS'534'
p832
F3.2061312770359227
sS'533'
p833
F3.1198647506339814
sS'532'
p834
F3.2800378429517503
sS'531'
p835
F3.1379310344827585
sS'530'
p836
F2.4294871794871793
sS'539'
p837
F3.8464912280701755
sS'538'
p838
F2.737623762376238
sS'775'
p839
F3.5502092050209204
sS'988'
p840
F3.7629146275149536
sS'989'
p841
F3.0509891791452617
sS'774'
p842
F4.249292929292929
sS'982'
p843
F3.800383877159309
sS'983'
p844
F2.5010060362173037
sS'980'
p845
F3.6267318663406685
sS'981'
p846
F3.031847133757962
sS'986'
p847
F3.52693787795492
sS'987'
p848
F2.8210526315789473
sS'984'
p849
F3.403385872737887
sS'985'
p850
F3.629029211435683
sS'115'
p851
F3.539039039039039
sS'68'
p852
F4.14259927797834
sS'117'
p853
F3.46177370030581
sS'116'
p854
F3.539076376554174
sS'111'
p855
F3.0828824642347397
sS'110'
p856
F3.0338119499768412
sS'113'
p857
F3.8851399856424984
sS'112'
p858
F3.00418410041841
sS'771'
p859
F3.1056701030927836
sS'119'
p860
F2.6979166666666665
sS'118'
p861
F3.432952182952183
sS'770'
p862
F3.1607142857142856
sS'207'
p863
F2.86046511627907
sS'206'
p864
F3.8585766423357666
sS'429'
p865
F3.3617719442165708
sS'428'
p866
F2.8347826086956522
sS'919'
p867
F3.226416835887022
sS'918'
p868
F3.9177449168207024
sS'421'
p869
F4.043566362715299
sS'420'
p870
F3.7134593993325917
sS'917'
p871
F3.544642857142857
sS'916'
p872
F3.588235294117647
sS'425'
p873
F3.6699029126213594
sS'424'
p874
F3.5564447592067987
sS'913'
p875
F3.375
sS'912'
p876
F3.152173913043478
sS'308'
p877
F2.78
sS'309'
p878
F3.075055187637969
sS'855'
p879
F2.450765864332604
sS'300'
p880
F2.455357142857143
sS'301'
p881
F2.605714285714286
sS'302'
p882
F2.817974971558589
sS'303'
p883
F3.088888888888889
sS'304'
p884
F3.768310475634666
sS'305'
p885
F3.624414976599064
sS'306'
p886
F3.0558375634517767
sS'307'
p887
F3.4754098360655736
sS'895'
p888
F3.939197405755979
sS'371'
p889
F3.874251497005988
sS'370'
p890
F3.1095041322314048
sS'827'
p891
F2.964071856287425
sS'847'
p892
F3.7346938775510203
sS'846'
p893
F2.685658699277376
sS'845'
p894
F3.6271186440677967
sS'844'
p895
F2.861111111111111
sS'843'
p896
F3.714586439785984
sS'842'
p897
F3.457685664939551
sS'841'
p898
F2.96
sS'840'
p899
F3.8233970753655795
sS'375'
p900
F3.0266472868217056
sS'853'
p901
F2.8236559139784947
sS'849'
p902
F3.264571054354944
sS'848'
p903
F3.046070460704607
sS'823'
p904
F3.148014440433213
sS'822'
p905
F4.072402938090241
sS'554'
p906
F3.2443123938879457
sS'390'
p907
F2.6905761159862647
sS'753'
p908
F3.9748427672955975
sS'569'
p909
F3.4811494252873563
sS'751'
p910
F3.1893305439330546
sS'750'
p911
F3.522935779816514
sS'757'
p912
F3.129032258064516
sS'508'
p913
F2.9896907216494846
sS'755'
p914
F3.5009920634920637
sS'754'
p915
F3.1969548133595285
sS'560'
p916
F4.191676436107855
sS'561'
p917
F3.940714285714286
sS'562'
p918
F2.372093023255814
sS'509'
p919
F2.467741935483871
sS'564'
p920
F3.1957505773672055
sS'565'
p921
F3.25
sS'566'
p922
F3.0798771121351765
sS'567'
p923
F2.8222222222222224
sS'739'
p924
F2.7292110874200426
sS'229'
p925
F3.831288343558282
sS'228'
p926
F2.831578947368421
sS'227'
p927
F3.417293233082707
sS'226'
p928
F2.4444444444444446
sS'225'
p929
F2.733739012846518
sS'224'
p930
F3.8314917127071824
sS'223'
p931
F4.2111917098445595
sS'222'
p932
F2.606060606060606
sS'221'
p933
F3.4347826086956523
sS'220'
p934
F3.257918552036199
sS'114'
p935
F3.366822429906542
sS'391'
p936
F3.5384615384615383
sS'726'
p937
F2.142857142857143
sS'727'
p938
F2.706766917293233
sS'724'
p939
F4.40801308258381
sS'725'
p940
F3.628799688230709
sS'722'
p941
F4.094542401343409
sS'723'
p942
F2.9943724177233224
sS'720'
p943
F3.84381315966764
sS'721'
p944
F2.4839650145772594
sS'728'
p945
F2.967032967032967
sS'729'
p946
F2.4205607476635516
sS'605'
p947
F2.8907563025210083
sS'604'
p948
F3.3130434782608695
sS'153'
p949
F2.7476635514018692
sS'152'
p950
F3.9340755293604017
sS'601'
p951
F3.3201970443349755
sS'600'
p952
F3.216151202749141
sS'157'
p953
F3.3787234042553194
sS'156'
p954
F3.495170558748013
sS'159'
p955
F3.932926829268293
sS'158'
p956
F2.657754010695187
sS'609'
p957
F3.761038961038961
sS'608'
p958
F2.411764705882353
sS'634'
p959
F4.150783289817232
sS'399'
p960
F2.336
sS'635'
p961
F2.645390070921986
sS'959'
p962
F2.9536082474226806
sS'958'
p963
F3.617424242424242
sS'398'
p964
F2.7483870967741937
sS'48'
p965
F3.7109440267335003
sS'49'
p966
F3.6666666666666665
sS'46'
p967
F3.8064958828911255
sS'950'
p968
F2.5714285714285716
sS'953'
p969
F3.4132857142857143
sS'45'
p970
F2.9686903398243603
sS'42'
p971
F2.328125
sS'954'
p972
F3.3259982692545433
sS'957'
p973
F3.6731707317073172
sS'956'
p974
F2.575567994731643
sS'638'
p975
F3.5402160864345738
sS'5'
p976
F3.9192982456140353
sS'639'
p977
F3.094240837696335
sS'374'
p978
F3.3292181069958846
sS'489'
p979
F3.5524243680066308
sS'488'
p980
F3.6581459809054513
sS'487'
p981
F3.707581227436823
sS'486'
p982
F3.6507692307692308
sS'485'
p983
F3.5610859728506785
sS'484'
p984
F3.5172413793103448
sS'483'
p985
F3.45150538829019
sS'482'
p986
F3.7875548633725047
sS'481'
p987
F3.103723404255319
sS'480'
p988
F2.573816155988858
sS'955'
p989
F3.1893939393939394
sS'803'
p990
F2.369146005509642
sS'472'
p991
F3.058252427184466
sS'473'
p992
F4.03342937039234
sS'470'
p993
F2.4455958549222796
sS'471'
p994
F4.0713333333333335
sS'476'
p995
F4.132708436112481
sS'477'
p996
F3.963855421686747
sS'474'
p997
F3.59835255354201
sS'475'
p998
F3.0019212295869355
sS'478'
p999
F3.2598607888631093
sS'479'
p1000
F3.871331828442438
s.