(dp0
S'12650'
p1
F2.231707317073171
sS'12656'
p2
F3.013793103448276
sS'12259'
p3
F2.704663212435233
sS'12391'
p4
F3.4405644582635735
sS'12487'
p5
F3.3716814159292037
sS'12525'
p6
F2.695530726256983
sS'12524'
p7
F3.789855072463768
sS'12527'
p8
F3.500660501981506
sS'12526'
p9
F3.4513258586937177
sS'12521'
p10
F3.6039426523297493
sS'12520'
p11
F3.1775147928994083
sS'12523'
p12
F2.9880587875076547
sS'12522'
p13
F2.891089108910891
sS'12529'
p14
F3.35
sS'12528'
p15
F2.653361344537815
sS'12762'
p16
F3.348148148148148
sS'12195'
p17
F3.818104566393846
sS'12091'
p18
F3.248112732762959
sS'12159'
p19
F3.9722814498933903
sS'12932'
p20
F2.4015151515151514
sS'12933'
p21
F3.31505376344086
sS'12930'
p22
F2.980392156862745
sS'12931'
p23
F3.4800280855047587
sS'12936'
p24
F2.62992125984252
sS'12937'
p25
F4.335956529885704
sS'12934'
p26
F3.443562610229277
sS'12935'
p27
F3.566233766233766
sS'12978'
p28
F4.004163413999479
sS'12938'
p29
F3.490822027134876
sS'12939'
p30
F2.9805714285714284
sS'12068'
p31
F2.0933333333333333
sS'12069'
p32
F2.9868852459016395
sS'12703'
p33
F3.2397003745318353
sS'12702'
p34
F3.6504927975739196
sS'12705'
p35
F2.739795918367347
sS'12704'
p36
F3.485873458018305
sS'12707'
p37
F3.038095238095238
sS'12706'
p38
F3.4244791666666665
sS'12709'
p39
F3.0309734513274336
sS'12708'
p40
F2.8882438316400583
sS'12062'
p41
F3.3333333333333335
sS'12063'
p42
F2.1958333333333333
sS'12064'
p43
F3.2672413793103448
sS'12065'
p44
F3.596987951807229
sS'12066'
p45
F3.75416133162612
sS'12067'
p46
F3.5687074829931973
sS'12307'
p47
F3.6910707529322737
sS'12668'
p48
F3.7976430008623168
sS'12669'
p49
F2.998402555910543
sS'12666'
p50
F2.950678175092478
sS'12667'
p51
F3.615676125335059
sS'12664'
p52
F3.6610169491525424
sS'12665'
p53
F2.835227272727273
sS'12662'
p54
F3.041895010095183
sS'12663'
p55
F2.925233644859813
sS'12660'
p56
F3.0650203188496405
sS'12661'
p57
F3.4018455894996276
sS'12987'
p58
F3.8528834837191055
sS'12986'
p59
F3.59057257988942
sS'12985'
p60
F3.7304347826086954
sS'12984'
p61
F2.9385474860335195
sS'12983'
p62
F3.7609756097560973
sS'12982'
p63
F3.5774647887323945
sS'12981'
p64
F2.6292134831460676
sS'12980'
p65
F3.6782608695652175
sS'12989'
p66
F2.7033898305084745
sS'12988'
p67
F3.274800188058298
sS'12019'
p68
F3.937282229965157
sS'12018'
p69
F2.5750915750915753
sS'12015'
p70
F3.309144542772861
sS'12014'
p71
F3.1305610287255003
sS'12017'
p72
F3.53
sS'12016'
p73
F3.9461374911410347
sS'12011'
p74
F3.7098719614028575
sS'12010'
p75
F3.367911479944675
sS'12013'
p76
F1.9936305732484076
sS'12012'
p77
F3.888888888888889
sS'12798'
p78
F2.973250447395686
sS'12799'
p79
F3.481177240026161
sS'12792'
p80
F3.913326110509209
sS'12793'
p81
F3.720720720720721
sS'12790'
p82
F2.3479087452471483
sS'12791'
p83
F3.5179198875614897
sS'12796'
p84
F2.3509933774834435
sS'12797'
p85
F3.6405228758169934
sS'12794'
p86
F3.101010101010101
sS'12795'
p87
F3.5514105852179996
sS'12594'
p88
F3.6104252400548695
sS'12595'
p89
F3.2950819672131146
sS'12596'
p90
F3.047471620227038
sS'12597'
p91
F2.772727272727273
sS'12590'
p92
F2.8308823529411766
sS'12591'
p93
F3.4350413478630495
sS'12592'
p94
F3.097879282218597
sS'12593'
p95
F3.8262608525997464
sS'12598'
p96
F3.5677999218444705
sS'12599'
p97
F4.05059203444564
sS'12848'
p98
F3.7218934911242605
sS'12849'
p99
F3.8119205298013243
sS'12060'
p100
F3.6040697674418603
sS'12843'
p101
F3.613301698489813
sS'12840'
p102
F3.632383966244726
sS'12841'
p103
F3.0797962648556876
sS'12846'
p104
F3.5594701986754966
sS'12847'
p105
F3.444915254237288
sS'12844'
p106
F3.030075187969925
sS'12845'
p107
F3.1424242424242426
sS'12240'
p108
F3.441860465116279
sS'12241'
p109
F2.0277777777777777
sS'12242'
p110
F4.093528018942384
sS'12243'
p111
F3.156258071181363
sS'12244'
p112
F3.1086997709226822
sS'12245'
p113
F1.9310344827586208
sS'12246'
p114
F3.787550456766518
sS'12247'
p115
F2.6363636363636362
sS'12248'
p116
F3.108832807570978
sS'12249'
p117
F2.956237218813906
sS'12129'
p118
F2.4225352112676055
sS'12128'
p119
F3.0429194399816386
sS'12084'
p120
F3.352229765839948
sS'12085'
p121
F3.685253456221198
sS'12082'
p122
F3.843042071197411
sS'12083'
p123
F2.9610027855153205
sS'12080'
p124
F3.9100529100529102
sS'12081'
p125
F3.062015503875969
sS'12121'
p126
F2.9397363465160073
sS'12120'
p127
F2.5483870967741935
sS'12123'
p128
F1.852017937219731
sS'12122'
p129
F2.46875
sS'12125'
p130
F4.3044726142071275
sS'12124'
p131
F3.32450133968443
sS'12088'
p132
F3.070244672454617
sS'12089'
p133
F3.2045454545454546
sS'12550'
p134
F3.090909090909091
sS'12211'
p135
F4.05606337599025
sS'12569'
p136
F3.4460822342901474
sS'12568'
p137
F2.58125
sS'12444'
p138
F3.1939890710382515
sS'12445'
p139
F2.7430167597765363
sS'12442'
p140
F3.586235489220564
sS'12443'
p141
F4.004651162790697
sS'12440'
p142
F3.892198207696363
sS'12441'
p143
F3.002020202020202
sS'12561'
p144
F3.33920704845815
sS'12560'
p145
F3.8464243329963517
sS'12563'
p146
F3.460227272727273
sS'12562'
p147
F3.1897329823241822
sS'12565'
p148
F2.566225165562914
sS'12564'
p149
F3.504109589041096
sS'12448'
p150
F2.918269230769231
sS'12449'
p151
F2.331360946745562
sS'12235'
p152
F3.831758034026465
sS'12234'
p153
F3.499229583975347
sS'12237'
p154
F3.8636363636363638
sS'12236'
p155
F3.177101967799642
sS'12338'
p156
F4.190183005284929
sS'12230'
p157
F3.563165905631659
sS'12233'
p158
F3.707627118644068
sS'12232'
p159
F3.3721966326785036
sS'12334'
p160
F3.6681153694192017
sS'12335'
p161
F3.553992887164565
sS'12336'
p162
F3.3936305732484078
sS'12337'
p163
F3.532546786004882
sS'12330'
p164
F2.524137931034483
sS'12238'
p165
F3.1382142374712956
sS'12332'
p166
F3.5567846607669615
sS'12333'
p167
F3.639344262295082
sS'12622'
p168
F3.3270440251572326
sS'12623'
p169
F3.7784071976008
sS'12620'
p170
F2.5036855036855035
sS'12621'
p171
F2.9583333333333335
sS'12626'
p172
F3.449546485260771
sS'12627'
p173
F3.785234899328859
sS'12624'
p174
F3.6527886881382563
sS'12625'
p175
F2.1818181818181817
sS'12451'
p176
F2.959016393442623
sS'12628'
p177
F2.9805825242718447
sS'12629'
p178
F3.539325842696629
sS'12519'
p179
F2.825
sS'12051'
p180
F3.3110381616741895
sS'12546'
p181
F3.2690918074298243
sS'12183'
p182
F3.1845238095238093
sS'12817'
p183
F2.638036809815951
sS'12544'
p184
F3.7754237288135593
sS'12811'
p185
F4.244504565437944
sS'12542'
p186
F3.3136593591905563
sS'12099'
p187
F2.6996587030716723
sS'12813'
p188
F3.590094836670179
sS'12459'
p189
F2.883089770354906
sS'12812'
p190
F3.6875
sS'12458'
p191
F3.1457777777777776
sS'12198'
p192
F3.7268041237113403
sS'12050'
p193
F2.878787878787879
sS'12949'
p194
F4.031963470319635
sS'12948'
p195
F3.48491879350348
sS'12055'
p196
F1.8958333333333333
sS'12054'
p197
F3.017162471395881
sS'12057'
p198
F3.09640831758034
sS'12056'
p199
F3.4681290385269397
sS'12190'
p200
F2.913207547169811
sS'12058'
p201
F3.0230414746543777
sS'12192'
p202
F3.692556634304207
sS'12940'
p203
F3.1666666666666665
sS'12194'
p204
F3.2929178470254956
sS'12941'
p205
F3.0992063492063493
sS'12196'
p206
F3.4077892325315005
sS'12197'
p207
F2.7112135176651306
sS'12697'
p208
F2.9368088467614535
sS'12696'
p209
F3.643097643097643
sS'12695'
p210
F3.4482758620689653
sS'12193'
p211
F3.2572463768115942
sS'12693'
p212
F3.6151807980049875
sS'12692'
p213
F3.059171597633136
sS'12758'
p214
F3.992318946598391
sS'12690'
p215
F3.7999845368795424
sS'12756'
p216
F4.04251968503937
sS'12757'
p217
F3.5155555555555558
sS'12754'
p218
F2.839080459770115
sS'12755'
p219
F4.2593984962406015
sS'12752'
p220
F3.2872340425531914
sS'12753'
p221
F3.5789473684210527
sS'12750'
p222
F2.6405228758169934
sS'12946'
p223
F4.0153217568947905
sS'12945'
p224
F3.373559733171619
sS'12944'
p225
F3.8318425760286225
sS'12491'
p226
F2.727272727272727
sS'12490'
p227
F3.3837805605247464
sS'12493'
p228
F3.684835193188415
sS'12492'
p229
F3.6059417040358746
sS'12495'
p230
F3.383663366336634
sS'12494'
p231
F3.51771685709617
sS'12497'
p232
F3.3920255267529864
sS'12496'
p233
F2.948051948051948
sS'12886'
p234
F3.928941311852704
sS'12498'
p235
F3.2697095435684647
sS'12884'
p236
F3.702484286141874
sS'12885'
p237
F3.420689655172414
sS'12882'
p238
F3.5559006211180124
sS'12883'
p239
F2.272
sS'12880'
p240
F2.9310344827586206
sS'12881'
p241
F3.373568421888651
sS'12284'
p242
F3.4038461538461537
sS'12285'
p243
F3.7883101150817686
sS'12286'
p244
F2.698051948051948
sS'12694'
p245
F3.4425336164189666
sS'12280'
p246
F3.798990373908094
sS'12281'
p247
F2.0392156862745097
sS'12282'
p248
F2.825
sS'12283'
p249
F2.663054187192118
sS'12288'
p250
F2.9063545150501673
sS'12289'
p251
F2.511904761904762
sS'12701'
p252
F3.35
sS'12691'
p253
F3.211764705882353
sS'12700'
p254
F3.4814814814814814
sS'12759'
p255
F3.7130550033134524
sS'12433'
p256
F2.9958592132505175
sS'12203'
p257
F3.6176470588235294
sS'12432'
p258
F3.002557544757033
sS'12851'
p259
F3.448018830914084
sS'12833'
p260
F3.1653762160015884
sS'12832'
p261
F3.944636678200692
sS'12831'
p262
F3.007662835249042
sS'12830'
p263
F2.695825049701789
sS'12837'
p264
F3.1400569079987353
sS'12836'
p265
F2.759469696969697
sS'12835'
p266
F2.868292682926829
sS'12061'
p267
F3.845217391304348
sS'12839'
p268
F3.5011001100110013
sS'12838'
p269
F3.9590931493346475
sS'12370'
p270
F3.5519230769230767
sS'12371'
p271
F4.15257439773264
sS'12408'
p272
F2.86078566505858
sS'12409'
p273
F2.9001447178002895
sS'12374'
p274
F2.9453781512605044
sS'12375'
p275
F3.8845208845208847
sS'12376'
p276
F3.5034351145038167
sS'12377'
p277
F3.0288461538461537
sS'12378'
p278
F3.2342819324950365
sS'12379'
p279
F3.4434782608695653
sS'12400'
p280
F4.083688298672012
sS'12401'
p281
F3.4070464767616193
sS'12406'
p282
F2.4074074074074074
sS'12407'
p283
F2.899441340782123
sS'12404'
p284
F2.828641370869033
sS'12405'
p285
F2.9863378873708766
sS'12176'
p286
F2.8585858585858586
sS'12177'
p287
F3.1017964071856285
sS'12174'
p288
F2.9182879377431905
sS'12175'
p289
F2.111111111111111
sS'12172'
p290
F3.5335317149569305
sS'12173'
p291
F3.506972346962893
sS'12170'
p292
F3.2091503267973858
sS'12171'
p293
F2.1161584074544684
sS'12271'
p294
F2.5483870967741935
sS'12270'
p295
F2.8870056497175143
sS'12273'
p296
F2.9598488427019367
sS'12272'
p297
F3.0829947765525247
sS'12275'
p298
F3.1172436316133245
sS'12274'
p299
F3.1521988527724667
sS'12277'
p300
F3.334735071488646
sS'12276'
p301
F2.713375796178344
sS'12219'
p302
F4.297979797979798
sS'12536'
p303
F2.6875
sS'12537'
p304
F2.2
sS'12534'
p305
F3.4020707506471095
sS'12535'
p306
F3.1564245810055866
sS'12532'
p307
F3.5833333333333335
sS'12533'
p308
F2.9257142857142857
sS'12530'
p309
F4.418084657572774
sS'12531'
p310
F3.263440860215054
sS'12538'
p311
F3.502983590253605
sS'12539'
p312
F3.3148718851809456
sS'12305'
p313
F3.7886264919516734
sS'12304'
p314
F3.332001997004493
sS'12023'
p315
F3.273755656108597
sS'12306'
p316
F3.748148148148148
sS'12301'
p317
F3.3641413019329036
sS'12300'
p318
F3.41123595505618
sS'12303'
p319
F3.2691466083150984
sS'12302'
p320
F2.9411764705882355
sS'12309'
p321
F3.1172390343420604
sS'12308'
p322
F2.943396226415094
sS'12909'
p323
F3.7113821138211383
sS'12908'
p324
F3.0445859872611467
sS'12907'
p325
F3.3353658536585367
sS'12906'
p326
F3.8
sS'12905'
p327
F3.449612403100775
sS'12904'
p328
F3.89590555607608
sS'12903'
p329
F3.144240077444337
sS'12902'
p330
F3.1710669684016426
sS'12901'
p331
F3.0386100386100385
sS'12900'
p332
F3.604424778761062
sS'12712'
p333
F3.2822966507177034
sS'12713'
p334
F2.4052287581699345
sS'12710'
p335
F3.861047835990888
sS'12711'
p336
F3.603809523809524
sS'12716'
p337
F3.6653225806451615
sS'12717'
p338
F2.7404580152671754
sS'12714'
p339
F3.5410658307210032
sS'12731'
p340
F4.348136217211229
sS'12718'
p341
F3.8891573542736335
sS'12719'
p342
F3.9487598800763153
sS'12854'
p343
F3.1890243902439024
sS'12659'
p344
F2.311797752808989
sS'12658'
p345
F4.116946160635481
sS'12888'
p346
F2.982142857142857
sS'12182'
p347
F3.9507042253521125
sS'12653'
p348
F2.6736672051696284
sS'12652'
p349
F4.012457531143828
sS'12651'
p350
F3.2536023054755043
sS'12889'
p351
F3.2439862542955327
sS'12657'
p352
F2.641025641025641
sS'12141'
p353
F2.8677536231884058
sS'12655'
p354
F2.2056737588652484
sS'12654'
p355
F2.75
sS'12499'
p356
F2.842237061769616
sS'12269'
p357
F2.707070707070707
sS'12887'
p358
F1.702127659574468
sS'12479'
p359
F3.22488038277512
sS'12990'
p360
F1.7984496124031009
sS'12991'
p361
F3.226598465473146
sS'12992'
p362
F2.9444444444444446
sS'12993'
p363
F3.4533678756476682
sS'12994'
p364
F2.9295774647887325
sS'12995'
p365
F2.863517060367454
sS'12996'
p366
F3.295774647887324
sS'12997'
p367
F2.73160706946157
sS'12998'
p368
F3.353305785123967
sS'12999'
p369
F4.24832448428932
sS'12149'
p370
F2.5248992747784045
sS'12943'
p371
F3.265185185185185
sS'12261'
p372
F2.8249241797628892
sS'12008'
p373
F4.110091743119266
sS'12009'
p374
F3.6290174471992653
sS'12006'
p375
F2.8706896551724137
sS'12007'
p376
F2.9829545454545454
sS'12004'
p377
F2.0163934426229506
sS'12005'
p378
F3.194842406876791
sS'12002'
p379
F3.5127245508982035
sS'12003'
p380
F3.642390341160833
sS'12000'
p381
F2.832
sS'12001'
p382
F3.4641909814323606
sS'12287'
p383
F3.118556701030928
sS'12639'
p384
F3.7068390986988256
sS'12877'
p385
F2.9898580121703855
sS'12876'
p386
F2.740022805017104
sS'12875'
p387
F3.683146766169154
sS'12874'
p388
F3.9658048373644705
sS'12873'
p389
F2.5416666666666665
sS'12872'
p390
F4.114375655823714
sS'12871'
p391
F3.6617895329206527
sS'12870'
p392
F4.458004172392996
sS'12879'
p393
F3.406779661016949
sS'12878'
p394
F3.990142387732749
sS'12739'
p395
F2.9918345127925967
sS'12138'
p396
F3.6663751639702666
sS'12139'
p397
F3.9964317573595003
sS'12132'
p398
F3.399207075327844
sS'12133'
p399
F2.481060606060606
sS'12130'
p400
F3.5424175824175825
sS'12131'
p401
F3.0153061224489797
sS'12136'
p402
F2.8584070796460175
sS'12137'
p403
F3.122137404580153
sS'12134'
p404
F3.3355176933158583
sS'12135'
p405
F3.675894665766374
sS'12852'
p406
F3.6384720327421554
sS'12226'
p407
F3.921919770773639
sS'12751'
p408
F2.0619136960600377
sS'12947'
p409
F2.727272727272727
sS'12151'
p410
F3.037914691943128
sS'12227'
p411
F2.8737201365187715
sS'12473'
p412
F3.934244173303134
sS'12472'
p413
F2.513840830449827
sS'12578'
p414
F3.656632173095014
sS'12470'
p415
F3.411870057897227
sS'12477'
p416
F2.7027027027027026
sS'12476'
p417
F3.4634860074454097
sS'12475'
p418
F2.072992700729927
sS'12474'
p419
F3.087248322147651
sS'12572'
p420
F4.116838487972508
sS'12573'
p421
F2.31171875
sS'12570'
p422
F3.2879967528873473
sS'12478'
p423
F3.9120603015075375
sS'12576'
p424
F3.066062176165803
sS'12577'
p425
F2.9707112970711296
sS'12574'
p426
F2.111464968152866
sS'12575'
p427
F3.1333333333333333
sS'12349'
p428
F2.3899629781982723
sS'12348'
p429
F3.5109034267912773
sS'12224'
p430
F3.3273653260527145
sS'12225'
p431
F2.707865168539326
sS'12222'
p432
F3.2511773940345368
sS'12223'
p433
F3.081967213114754
sS'12220'
p434
F2.8569500674763835
sS'12221'
p435
F3.833362173386399
sS'12341'
p436
F3.5522388059701493
sS'12340'
p437
F3.3065693430656933
sS'12343'
p438
F3.5264846980976015
sS'12342'
p439
F2.64078431372549
sS'12345'
p440
F2.708171206225681
sS'12344'
p441
F3.1607786589762075
sS'12228'
p442
F3.244559400642169
sS'12229'
p443
F2.3983050847457625
sS'12619'
p444
F3.923556942277691
sS'12618'
p445
F3.283341243474134
sS'12617'
p446
F3.824891461649783
sS'12616'
p447
F1.8410596026490067
sS'12615'
p448
F3.011627906976744
sS'12614'
p449
F3.0625
sS'12613'
p450
F3.6122448979591835
sS'12612'
p451
F3.8116747741487145
sS'12611'
p452
F3.018808777429467
sS'12610'
p453
F1.7520661157024793
sS'12318'
p454
F3.8026315789473686
sS'12699'
p455
F2.2777777777777777
sS'12954'
p456
F3.1483870967741936
sS'12955'
p457
F2.6153846153846154
sS'12956'
p458
F4.2395244821092275
sS'12957'
p459
F2.814946619217082
sS'12950'
p460
F3.1651090342679127
sS'12951'
p461
F3.207689408217113
sS'12952'
p462
F3.5555555555555554
sS'12953'
p463
F3.587893864013267
sS'12958'
p464
F3.739350912778905
sS'12959'
p465
F3.4177215189873418
sS'12042'
p466
F3.409090909090909
sS'12043'
p467
F2.645945945945946
sS'12040'
p468
F2.856697819314642
sS'12041'
p469
F2.3146067415730336
sS'12046'
p470
F3.6711409395973154
sS'12698'
p471
F3.351145038167939
sS'12044'
p472
F3.167578659370725
sS'12045'
p473
F2.7115384615384617
sS'12048'
p474
F2.5872093023255816
sS'12049'
p475
F3.5104712041884816
sS'12680'
p476
F3.005050505050505
sS'12681'
p477
F4.354166666666667
sS'12769'
p478
F3.363776493256262
sS'12768'
p479
F3.488372093023256
sS'12684'
p480
F3.4921700223713645
sS'12685'
p481
F2.9
sS'12686'
p482
F3.4508670520231215
sS'12687'
p483
F3.2562814070351758
sS'12688'
p484
F3.0541619156214366
sS'12689'
p485
F3.8822544642857144
sS'12761'
p486
F3.446886446886447
sS'12760'
p487
F3.2922940655447297
sS'12767'
p488
F3.469496587030717
sS'12766'
p489
F3.5160478288231594
sS'12765'
p490
F2.477064220183486
sS'12764'
p491
F3.7083333333333335
sS'12891'
p492
F4.466512961817466
sS'12351'
p493
F2.156657963446475
sS'12482'
p494
F3.5867222801529373
sS'12483'
p495
F3.410041841004184
sS'12480'
p496
F2.4959349593495936
sS'12481'
p497
F2.8603082851637764
sS'12486'
p498
F3.8745741715701456
sS'12022'
p499
F3.270935960591133
sS'12484'
p500
F2.3146853146853146
sS'12485'
p501
F2.7418604651162792
sS'12488'
p502
F4.080252479711452
sS'12489'
p503
F3.3216094541361847
sS'12187'
p504
F2.7126099706744866
sS'12186'
p505
F3.76456065927188
sS'12974'
p506
F3.6885300929811016
sS'12975'
p507
F3.522676854818832
sS'12028'
p508
F3.5945945945945947
sS'12029'
p509
F2.742957746478873
sS'12566'
p510
F2.879852125693161
sS'12970'
p511
F3.2680215584998877
sS'12971'
p512
F2.729433272394881
sS'12471'
p513
F3.345151075730224
sS'12437'
p514
F2.58
sS'12436'
p515
F3.432098765432099
sS'12435'
p516
F3.87695593799585
sS'12434'
p517
F3.1066666666666665
sS'12828'
p518
F3.4212608345091717
sS'12829'
p519
F2.328125
sS'12431'
p520
F2.978102189781022
sS'12430'
p521
F3.5040828968857354
sS'12824'
p522
F3.829248366013072
sS'12825'
p523
F2.0701754385964914
sS'12826'
p524
F3.617094017094017
sS'12827'
p525
F2.8380952380952382
sS'12820'
p526
F2.889473684210526
sS'12821'
p527
F2.0925925925925926
sS'12822'
p528
F3.820940819423369
sS'12438'
p529
F3.411255411255411
sS'12389'
p530
F2.9901719901719903
sS'12388'
p531
F2.3378378378378377
sS'12385'
p532
F3.4290780141843973
sS'12384'
p533
F4.248993288590604
sS'12387'
p534
F3.50730411686587
sS'12386'
p535
F3.7962962962962963
sS'12381'
p536
F3.0367322950337936
sS'12380'
p537
F3.15929203539823
sS'12383'
p538
F3.213740458015267
sS'12382'
p539
F2.7056694813027744
sS'12143'
p540
F2.175675675675676
sS'12142'
p541
F2.488888888888889
sS'12268'
p542
F3.28
sS'12140'
p543
F3.7313429180239535
sS'12147'
p544
F3.5260416666666665
sS'12146'
p545
F2.8181818181818183
sS'12145'
p546
F3.668982374887431
sS'12144'
p547
F2.6495726495726495
sS'12262'
p548
F4.013649615690432
sS'12263'
p549
F3.216722509899482
sS'12260'
p550
F3.4496461622210126
sS'12148'
p551
F2.9130434782608696
sS'12266'
p552
F3.7084745762711866
sS'12267'
p553
F2.874251497005988
sS'12264'
p554
F2.81151832460733
sS'12265'
p555
F3.730769230769231
sS'12551'
p556
F2.1767441860465118
sS'12571'
p557
F2.5961538461538463
sS'12079'
p558
F3.4734098018769552
sS'12078'
p559
F3.6209150326797386
sS'12331'
p560
F2.948091603053435
sS'12743'
p561
F3.26228323699422
sS'12503'
p562
F3.1841375485302272
sS'12502'
p563
F3.5056603773584905
sS'12501'
p564
F3.8707624640291978
sS'12500'
p565
F3.685164914599641
sS'12507'
p566
F3.130841121495327
sS'12506'
p567
F3.6199460916442048
sS'12505'
p568
F3.7098150782361308
sS'12504'
p569
F3.4349775784753365
sS'12778'
p570
F3.7031804956355976
sS'12509'
p571
F3.0766897746967072
sS'12508'
p572
F3.7288474894799197
sS'12779'
p573
F3.6891679748822606
sS'12316'
p574
F3.9125235997482695
sS'12317'
p575
F3.7707291616097867
sS'12314'
p576
F2.5869565217391304
sS'12315'
p577
F3.6636971046770603
sS'12312'
p578
F3.76425855513308
sS'12313'
p579
F3.4436018957345973
sS'12310'
p580
F3.6366950182260025
sS'12311'
p581
F3.4804748516088724
sS'12553'
p582
F2.6055045871559632
sS'12319'
p583
F3.616
sS'12918'
p584
F3.785720086527032
sS'12919'
p585
F3.844205679201842
sS'12910'
p586
F2.7772657450076803
sS'12911'
p587
F3.639586620705535
sS'12912'
p588
F3.5599022004889975
sS'12913'
p589
F3.4474205494789425
sS'12914'
p590
F4.061674008810573
sS'12372'
p591
F3.312242090784044
sS'12916'
p592
F3.21256038647343
sS'12917'
p593
F3.084848484848485
sS'12644'
p594
F2.1702127659574466
sS'12645'
p595
F3.7847588163761654
sS'12646'
p596
F3.0
sS'12373'
p597
F3.1482649842271293
sS'12640'
p598
F3.544428772919605
sS'12641'
p599
F2.659919028340081
sS'12729'
p600
F1.531496062992126
sS'12728'
p601
F3.2212389380530975
sS'12727'
p602
F3.6417543380243202
sS'12726'
p603
F3.69041011409189
sS'12725'
p604
F2.708171206225681
sS'12724'
p605
F3.0411522633744856
sS'12648'
p606
F4.0
sS'12649'
p607
F2.3762057877813505
sS'12721'
p608
F4.058379261073688
sS'12720'
p609
F3.2096164235548352
sS'12850'
p610
F2.8395061728395063
sS'12402'
p611
F3.1695095948827294
sS'12647'
p612
F3.402173913043478
sS'12723'
p613
F3.1190979563072587
sS'12347'
p614
F2.945228215767635
sS'12403'
p615
F3.0403225806451615
sS'12555'
p616
F3.4835164835164836
sS'12346'
p617
F2.5859375
sS'12642'
p618
F3.0151975683890577
sS'12643'
p619
F3.0928792569659445
sS'12842'
p620
F3.6730693845550766
sS'12191'
p621
F2.974528588807786
sS'12969'
p622
F2.9541284403669725
sS'12968'
p623
F3.236040609137056
sS'12965'
p624
F3.7974025974025976
sS'12964'
p625
F3.4523809523809526
sS'12967'
p626
F2.650943396226415
sS'12966'
p627
F3.541641286892962
sS'12961'
p628
F3.0941176470588236
sS'12960'
p629
F2.9649122807017543
sS'12963'
p630
F2.9051724137931036
sS'12962'
p631
F3.0651340996168583
sS'12279'
p632
F3.474600870827286
sS'12039'
p633
F2.9310344827586206
sS'12038'
p634
F3.478021978021978
sS'12278'
p635
F3.524978089395267
sS'12033'
p636
F1.7777777777777777
sS'12032'
p637
F4.0059612518628915
sS'12031'
p638
F3.223700120918984
sS'12030'
p639
F3.351973684210526
sS'12037'
p640
F3.148471615720524
sS'12036'
p641
F3.023872679045093
sS'12035'
p642
F4.331135321100917
sS'12722'
p643
F3.974169741697417
sS'12895'
p644
F3.3936305732484078
sS'12979'
p645
F3.1658031088082903
sS'12860'
p646
F3.19850512775943
sS'12861'
p647
F3.6263964666147053
sS'12862'
p648
F3.1833217270194987
sS'12863'
p649
F2.573170731707317
sS'12864'
p650
F2.96
sS'12865'
p651
F2.9209486166007905
sS'12866'
p652
F2.0915750915750917
sS'12867'
p653
F3.0631534922626518
sS'12868'
p654
F3.1595744680851063
sS'12869'
p655
F3.8415600243753807
sS'12823'
p656
F3.4
sS'12107'
p657
F3.9473684210526314
sS'12106'
p658
F3.9012345679012346
sS'12105'
p659
F2.967032967032967
sS'12104'
p660
F2.79
sS'12103'
p661
F3.950310559006211
sS'12102'
p662
F3.6060231431114627
sS'12101'
p663
F3.0297528996469993
sS'12100'
p664
F4.229552339279704
sS'12059'
p665
F3.111764705882353
sS'12109'
p666
F3.8200836820083683
sS'12108'
p667
F2.638655462184874
sS'12915'
p668
F2.9583333333333335
sS'12178'
p669
F3.875968992248062
sS'12179'
p670
F2.4827586206896552
sS'12239'
p671
F3.4234234234234235
sS'12399'
p672
F3.5453069476779806
sS'12547'
p673
F3.2183507549361208
sS'12814'
p674
F2.284697508896797
sS'12545'
p675
F3.7627291242362526
sS'12816'
p676
F3.1141732283464565
sS'12543'
p677
F2.635265700483092
sS'12810'
p678
F3.1654686812380812
sS'12541'
p679
F2.5077047850770477
sS'12540'
p680
F3.3197264372729216
sS'12819'
p681
F2.8492063492063493
sS'12818'
p682
F3.5947790180914723
sS'12549'
p683
F3.249884184193459
sS'12548'
p684
F2.941747572815534
sS'12086'
p685
F3.275134464211833
sS'12468'
p686
F2.497757847533632
sS'12469'
p687
F3.5465393794749405
sS'12087'
p688
F3.419624217118998
sS'12464'
p689
F2.4153846153846152
sS'12465'
p690
F3.0303030303030303
sS'12466'
p691
F3.3849048714196113
sS'12467'
p692
F3.168141592920354
sS'12460'
p693
F3.6502463054187193
sS'12461'
p694
F3.555
sS'12462'
p695
F3.7436548223350252
sS'12463'
p696
F2.1140350877192984
sS'12213'
p697
F3.2150668286755772
sS'12212'
p698
F3.225563909774436
sS'12358'
p699
F3.451219512195122
sS'12210'
p700
F3.7468354430379747
sS'12217'
p701
F2.513888888888889
sS'12216'
p702
F3.6923076923076925
sS'12215'
p703
F3.3934511434511436
sS'12214'
p704
F2.676829268292683
sS'12352'
p705
F3.3503289473684212
sS'12353'
p706
F3.548780487804878
sS'12350'
p707
F3.3394160583941606
sS'12218'
p708
F3.782721382289417
sS'12356'
p709
F3.5879563774300616
sS'12357'
p710
F2.9490196078431374
sS'12354'
p711
F2.970684039087948
sS'12355'
p712
F2.9646826110411797
sS'12299'
p713
F3.646641221374046
sS'12608'
p714
F3.0477223427331888
sS'12609'
p715
F3.345372460496614
sS'12298'
p716
F3.9320909665192674
sS'12422'
p717
F2.9401709401709404
sS'12600'
p718
F3.736891195912243
sS'12601'
p719
F3.9865910263022175
sS'12602'
p720
F2.524793388429752
sS'12603'
p721
F2.675213675213675
sS'12604'
p722
F2.9531568228105907
sS'12605'
p723
F4.061282702678612
sS'12606'
p724
F3.292134831460674
sS'12607'
p725
F3.5758513931888545
sS'12251'
p726
F2.9935483870967743
sS'12118'
p727
F2.6785714285714284
sS'12127'
p728
F2.2857142857142856
sS'12119'
p729
F2.9789473684210526
sS'12439'
p730
F3.7453416149068324
sS'12126'
p731
F3.5475251861585635
sS'12921'
p732
F2.831578947368421
sS'12920'
p733
F3.2311827956989245
sS'12923'
p734
F2.5168539325842696
sS'12922'
p735
F2.5626204238921
sS'12925'
p736
F3.8037974683544302
sS'12924'
p737
F2.9051724137931036
sS'12927'
p738
F3.21875
sS'12926'
p739
F2.998723268432812
sS'12929'
p740
F3.854263565891473
sS'12928'
p741
F3.3486238532110093
sS'12774'
p742
F3.6246505939902165
sS'12775'
p743
F3.4009661835748792
sS'12776'
p744
F3.3194444444444446
sS'12777'
p745
F3.367158671586716
sS'12770'
p746
F3.784799669558034
sS'12771'
p747
F2.63855421686747
sS'12772'
p748
F2.8907563025210083
sS'12773'
p749
F3.274600776866638
sS'12077'
p750
F3.367741197988112
sS'12076'
p751
F3.052350427350427
sS'12075'
p752
F3.9248145204027556
sS'12074'
p753
F4.05174975801944
sS'12073'
p754
F2.7564870259481036
sS'12072'
p755
F3.4945517582961863
sS'12071'
p756
F3.7128318584070796
sS'12070'
p757
F2.1867219917012446
sS'12679'
p758
F2.6624926628839756
sS'12678'
p759
F3.200149784684516
sS'12675'
p760
F3.7765117182442056
sS'12674'
p761
F1.7001303780964798
sS'12677'
p762
F3.5419262951753607
sS'12676'
p763
F3.9357865415628206
sS'12671'
p764
F3.9552991452991453
sS'12670'
p765
F4.0657871897240065
sS'12673'
p766
F2.96584440227704
sS'12672'
p767
F3.634835939014844
sS'12631'
p768
F2.847457627118644
sS'12363'
p769
F3.3958333333333335
sS'12789'
p770
F2.8851063829787233
sS'12788'
p771
F3.4915254237288136
sS'12781'
p772
F2.88265780730897
sS'12780'
p773
F2.5849802371541504
sS'12783'
p774
F3.3088235294117645
sS'12782'
p775
F2.495145631067961
sS'12785'
p776
F3.891222911463788
sS'12784'
p777
F3.712077641984184
sS'12787'
p778
F2.7889447236180906
sS'12786'
p779
F3.2207678883071553
sS'12587'
p780
F3.8266883645240033
sS'12420'
p781
F3.0
sS'12421'
p782
F3.4235880398671097
sS'12589'
p783
F4.0
sS'12588'
p784
F2.5336617405582924
sS'12424'
p785
F2.891891891891892
sS'12425'
p786
F3.6662371134020617
sS'12426'
p787
F3.261180679785331
sS'12427'
p788
F3.458075407990996
sS'12428'
p789
F3.063888888888889
sS'12429'
p790
F3.112721417069243
sS'12853'
p791
F3.6104513064133017
sS'12580'
p792
F3.422571675136638
sS'12855'
p793
F3.9307851239669422
sS'12586'
p794
F3.8610081541882875
sS'12585'
p795
F3.6970509383378016
sS'12584'
p796
F3.4541666666666666
sS'12257'
p797
F2.860655737704918
sS'12256'
p798
F3.0
sS'12255'
p799
F3.329125338142471
sS'12254'
p800
F3.5923076923076924
sS'12253'
p801
F2.7783783783783784
sS'12252'
p802
F3.048888888888889
sS'12398'
p803
F4.592084006462035
sS'12250'
p804
F3.6831683168316833
sS'12396'
p805
F3.08974358974359
sS'12397'
p806
F4.209113300492611
sS'12394'
p807
F3.019607843137255
sS'12395'
p808
F2.6436781609195403
sS'12392'
p809
F3.856152512998267
sS'12393'
p810
F2.9523269012485813
sS'12390'
p811
F3.0497685185185186
sS'12258'
p812
F2.6715686274509802
sS'12095'
p813
F2.735294117647059
sS'12094'
p814
F2.3217993079584773
sS'12097'
p815
F3.346774193548387
sS'12096'
p816
F3.2323139147094304
sS'12158'
p817
F3.681875
sS'12090'
p818
F3.433874709976798
sS'12093'
p819
F2.78021978021978
sS'12092'
p820
F2.827099395707439
sS'12154'
p821
F3.291005291005291
sS'12155'
p822
F3.9057679483515435
sS'12156'
p823
F3.0717703349282295
sS'12157'
p824
F3.8646616541353382
sS'12150'
p825
F3.560109289617486
sS'12098'
p826
F3.0757575757575757
sS'12152'
p827
F2.623853211009174
sS'12153'
p828
F3.312883435582822
sS'12446'
p829
F3.3570247933884296
sS'12447'
p830
F3.8100436681222707
sS'12834'
p831
F4.527519289221416
sS'12579'
p832
F2.1925925925925926
sS'12715'
p833
F3.478787878787879
sS'12199'
p834
F3.0454545454545454
sS'12455'
p835
F2.491329479768786
sS'12454'
p836
F3.4306569343065694
sS'12457'
p837
F2.6285714285714286
sS'12456'
p838
F2.9078014184397163
sS'12518'
p839
F2.847877358490566
sS'12450'
p840
F3.6936040609137057
sS'12453'
p841
F3.160377358490566
sS'12452'
p842
F3.0484375
sS'12514'
p843
F2.8607594936708862
sS'12515'
p844
F3.550675675675676
sS'12516'
p845
F2.4545454545454546
sS'12517'
p846
F1.945973086965254
sS'12510'
p847
F3.023529411764706
sS'12804'
p848
F3.6122166943062464
sS'12512'
p849
F3.2777070063694267
sS'12513'
p850
F3.553905002413934
sS'12323'
p851
F3.0783132530120483
sS'12322'
p852
F3.29843847595253
sS'12321'
p853
F3.119565217391304
sS'12320'
p854
F3.3236363636363637
sS'12327'
p855
F3.4320486815415823
sS'12326'
p856
F3.4944029850746268
sS'12325'
p857
F3.467391304347826
sS'12324'
p858
F3.1796805678793256
sS'12802'
p859
F2.515625
sS'12329'
p860
F3.1043956043956045
sS'12328'
p861
F2.926829268292683
sS'12047'
p862
F3.3454612791172864
sS'12556'
p863
F3.6796420581655482
sS'12557'
p864
F3.01591043017089
sS'12738'
p865
F3.900589390962672
sS'12630'
p866
F3.125904486251809
sS'12633'
p867
F3.556114568162761
sS'12632'
p868
F2.3163841807909606
sS'12635'
p869
F2.474285714285714
sS'12634'
p870
F3.764044943820225
sS'12637'
p871
F3.32
sS'12636'
p872
F3.873900293255132
sS'12730'
p873
F2.4276729559748427
sS'12638'
p874
F2.7948717948717947
sS'12732'
p875
F3.6811030669477702
sS'12733'
p876
F2.2421052631578946
sS'12734'
p877
F3.2143878037160554
sS'12735'
p878
F2.996450304259635
sS'12736'
p879
F3.173557278208441
sS'12737'
p880
F2.8714285714285714
sS'12511'
p881
F3.0709219858156027
sS'12567'
p882
F4.022918615528531
sS'12231'
p883
F2.348074179743224
sS'12339'
p884
F2.673740053050398
sS'12419'
p885
F2.7889908256880735
sS'12418'
p886
F3.4545454545454546
sS'12682'
p887
F3.1092513006107216
sS'12359'
p888
F3.3785354849904565
sS'12024'
p889
F2.214814814814815
sS'12025'
p890
F3.7433035714285716
sS'12026'
p891
F4.1951133144475925
sS'12027'
p892
F3.7589285714285716
sS'12020'
p893
F2.271523178807947
sS'12021'
p894
F3.0303951367781155
sS'12189'
p895
F2.5923076923076924
sS'12188'
p896
F3.4648804539957205
sS'12976'
p897
F3.8577405857740588
sS'12977'
p898
F3.51010101010101
sS'12185'
p899
F3.0552486187845305
sS'12184'
p900
F4.334361194295371
sS'12972'
p901
F2.2216216216216216
sS'12973'
p902
F3.7150684931506848
sS'12181'
p903
F3.3380577427821523
sS'12180'
p904
F3.642857142857143
sS'12859'
p905
F3.4761904761904763
sS'12749'
p906
F2.25968992248062
sS'12748'
p907
F3.6150123408991917
sS'12858'
p908
F3.1762452107279695
sS'12745'
p909
F3.4700015583606048
sS'12744'
p910
F3.024390243902439
sS'12747'
p911
F3.0039081582804106
sS'12746'
p912
F3.0140845070422535
sS'12741'
p913
F3.115626836846083
sS'12740'
p914
F1.8241042345276872
sS'12053'
p915
F1.7878787878787878
sS'12742'
p916
F3.6996466431095407
sS'12763'
p917
F3.5903276131045243
sS'12423'
p918
F3.6037187681580476
sS'12410'
p919
F2.9491525423728815
sS'12899'
p920
F3.056701030927835
sS'12898'
p921
F3.1711057304277643
sS'12942'
p922
F4.0861096873398255
sS'12894'
p923
F3.603971827733518
sS'12897'
p924
F2.537275064267352
sS'12896'
p925
F3.463009774182676
sS'12052'
p926
F3.952527937995674
sS'12890'
p927
F3.5868076668869797
sS'12893'
p928
F2.973684210526316
sS'12892'
p929
F3.5439088191330343
sS'12583'
p930
F2.716227697536109
sS'12369'
p931
F2.51
sS'12582'
p932
F3.861750254033212
sS'12416'
p933
F3.7577639751552794
sS'12581'
p934
F3.06
sS'12110'
p935
F3.615851543531044
sS'12111'
p936
F3.9521331945889697
sS'12112'
p937
F3.404120443740095
sS'12113'
p938
F3.0306122448979593
sS'12114'
p939
F3.4285714285714284
sS'12115'
p940
F2.9053221288515405
sS'12116'
p941
F2.10989010989011
sS'12117'
p942
F2.8583333333333334
sS'12293'
p943
F4.504490863092159
sS'12292'
p944
F3.8234659958673975
sS'12291'
p945
F3.432258064516129
sS'12290'
p946
F2.912806539509537
sS'12297'
p947
F2.6534613845538217
sS'12296'
p948
F2.6923076923076925
sS'12295'
p949
F3.052478134110787
sS'12294'
p950
F2.8951965065502185
sS'12034'
p951
F4.064762656082439
sS'12857'
p952
F3.5944055944055946
sS'12208'
p953
F3.2132867132867133
sS'12856'
p954
F2.5582089552238805
sS'12160'
p955
F3.269666440465626
sS'12815'
p956
F3.1246105919003115
sS'12806'
p957
F2.7751937984496124
sS'12807'
p958
F3.5220588235294117
sS'12552'
p959
F3.0898827616152844
sS'12805'
p960
F3.6912442396313363
sS'12554'
p961
F3.271966527196653
sS'12803'
p962
F3.7555555555555555
sS'12800'
p963
F3.5049004110022133
sS'12801'
p964
F2.8797468354430378
sS'12558'
p965
F3.8086956521739133
sS'12559'
p966
F2.215909090909091
sS'12808'
p967
F2.5515151515151517
sS'12809'
p968
F3.1066666666666665
sS'12367'
p969
F3.4557291666666665
sS'12366'
p970
F3.222509702457956
sS'12365'
p971
F3.5671391211700514
sS'12364'
p972
F3.1277985074626864
sS'12168'
p973
F3.0093457943925235
sS'12362'
p974
F2.7222222222222223
sS'12361'
p975
F3.5908733280881195
sS'12360'
p976
F3.4534282018111253
sS'12411'
p977
F3.73277614637452
sS'12200'
p978
F4.109411764705882
sS'12413'
p979
F3.5890279114533206
sS'12412'
p980
F3.1673957421988916
sS'12415'
p981
F2.891949152542373
sS'12414'
p982
F3.7422037422037424
sS'12417'
p983
F4.103998037772873
sS'12368'
p984
F3.3728070175438596
sS'12165'
p985
F2.8497150997150995
sS'12164'
p986
F3.050228310502283
sS'12167'
p987
F2.2802547770700636
sS'12166'
p988
F2.966887417218543
sS'12161'
p989
F3.686352773055412
sS'12209'
p990
F2.727272727272727
sS'12163'
p991
F3.100702576112412
sS'12162'
p992
F3.284178187403994
sS'12204'
p993
F2.391304347826087
sS'12205'
p994
F2.886842105263158
sS'12206'
p995
F4.066194048305993
sS'12207'
p996
F2.5118110236220472
sS'12169'
p997
F3.021442495126706
sS'12201'
p998
F3.0696517412935322
sS'12202'
p999
F3.3582089552238807
sS'12683'
p1000
F3.09794776119403
s.