(dp0
S'17571'
p1
F3.5073170731707317
sS'17528'
p2
F2.8977604673807207
sS'17479'
p3
F3.5306008243933067
sS'17529'
p4
F2.6293759512937593
sS'17294'
p5
F2.9093851132686086
sS'17295'
p6
F3.256304864194981
sS'17296'
p7
F3.19
sS'17297'
p8
F2.5444444444444443
sS'17246'
p9
F3.288753799392097
sS'17290'
p10
F3.5500381970970207
sS'17523'
p11
F3.7240143369175627
sS'17579'
p12
F2.6777777777777776
sS'17689'
p13
F2.3440860215053765
sS'17471'
p14
F3.0601503759398496
sS'17521'
p15
F2.823170731707317
sS'17654'
p16
F3.0725133689839574
sS'17548'
p17
F3.1748633879781423
sS'17656'
p18
F4.019404915912031
sS'17657'
p19
F3.7586206896551726
sS'17229'
p20
F3.1634943875061006
sS'17228'
p21
F2.9019607843137254
sS'17652'
p22
F3.637596899224806
sS'17653'
p23
F3.2422444024817914
sS'17225'
p24
F3.995852534562212
sS'17224'
p25
F3.493333333333333
sS'17227'
p26
F2.5652173913043477
sS'17554'
p27
F3.1790393013100435
sS'17221'
p28
F2.561659679051612
sS'17552'
p29
F3.291476407914764
sS'17551'
p30
F1.9015544041450778
sS'17222'
p31
F2.9831460674157304
sS'17388'
p32
F3.364485981308411
sS'17389'
p33
F3.6323886639676113
sS'17382'
p34
F3.5262135922330096
sS'17383'
p35
F3.263157894736842
sS'17380'
p36
F4.099640933572711
sS'17381'
p37
F3.972040942501889
sS'17386'
p38
F3.597359735973597
sS'17387'
p39
F3.422812618364807
sS'17384'
p40
F3.7172557172557172
sS'17385'
p41
F2.966108400369247
sS'17627'
p42
F4.091709181272238
sS'17239'
p43
F3.533557046979866
sS'17258'
p44
F3.717948717948718
sS'17310'
p45
F3.907849829351536
sS'17313'
p46
F3.0872817955112217
sS'17312'
p47
F3.2162872154115587
sS'17315'
p48
F2.847262247838617
sS'17314'
p49
F4.031825153374233
sS'17317'
p50
F3.721082089552239
sS'17316'
p51
F2.7746913580246915
sS'17250'
p52
F3.9633867276887873
sS'17318'
p53
F3.1624548736462095
sS'17252'
p54
F3.246696035242291
sS'17253'
p55
F3.0425531914893615
sS'17254'
p56
F4.004545454545455
sS'17234'
p57
F3.819548872180451
sS'17256'
p58
F3.07185628742515
sS'17257'
p59
F3.9936305732484074
sS'17030'
p60
F2.7682619647355162
sS'17031'
p61
F3.1748752041590946
sS'17032'
p62
F2.890322580645161
sS'17033'
p63
F3.4968666069829903
sS'17034'
p64
F1.8741721854304636
sS'17035'
p65
F2.5570342205323193
sS'17036'
p66
F4.059755102040817
sS'17037'
p67
F2.8525641025641026
sS'17038'
p68
F2.5952380952380953
sS'17544'
p69
F3.806772908366534
sS'17545'
p70
F2.2476190476190476
sS'17139'
p71
F3.148936170212766
sS'17138'
p72
F2.5849056603773586
sS'17429'
p73
F1.3967611336032388
sS'17428'
p74
F2.998994974874372
sS'17230'
p75
F4.148729446935725
sS'17131'
p76
F3.0522165387894287
sS'17422'
p77
F3.3900414937759336
sS'17133'
p78
F3.595890410958904
sS'17132'
p79
F3.336683417085427
sS'17135'
p80
F3.065593321407275
sS'17134'
p81
F3.2395341981132075
sS'17137'
p82
F2.869757174392936
sS'17136'
p83
F3.3112517302748663
sS'17117'
p84
F3.721080446271286
sS'17159'
p85
F3.7884615384615383
sS'17045'
p86
F3.0721649484536084
sS'17044'
p87
F2.933333333333333
sS'17513'
p88
F3.4966145919344718
sS'17046'
p89
F3.5121951219512195
sS'17728'
p90
F2.991596638655462
sS'17729'
p91
F2.311111111111111
sS'17043'
p92
F3.3067484662576687
sS'17042'
p93
F3.258426966292135
sS'17724'
p94
F3.8700093940817286
sS'17725'
p95
F3.603991054532943
sS'17726'
p96
F3.233695652173913
sS'17727'
p97
F3.270186335403727
sS'17720'
p98
F2.6923076923076925
sS'17048'
p99
F2.754621848739496
sS'17722'
p100
F3.1074380165289255
sS'17723'
p101
F3.651218220338983
sS'17512'
p102
F3.4339250493096647
sS'17346'
p103
F3.7859703020993343
sS'17611'
p104
F3.542372881355932
sS'17612'
p105
F4.231540342298288
sS'17345'
p106
F2.9773242630385486
sS'17614'
p107
F3.3604614412136535
sS'17343'
p108
F3.4970633414656187
sS'17616'
p109
F3.253731343283582
sS'17617'
p110
F2.257575757575758
sS'17748'
p111
F3.8109890109890108
sS'17060'
p112
F2.9577464788732395
sS'17639'
p113
F2.357894736842105
sS'17618'
p114
F3.011080332409972
sS'17619'
p115
F3.9799720540288774
sS'17348'
p116
F3.847802786709539
sS'17349'
p117
F3.8399291199054932
sS'17610'
p118
F3.130081300813008
sS'17347'
p119
F2.8372093023255816
sS'17344'
p120
F2.934065934065934
sS'17613'
p121
F3.4570582428430403
sS'17342'
p122
F3.456043956043956
sS'17615'
p123
F2.0387596899224807
sS'17340'
p124
F2.975609756097561
sS'17341'
p125
F3.6212410916043805
sS'17069'
p126
F2.9474708171206228
sS'17741'
p127
F3.287242472266244
sS'17120'
p128
F2.8351063829787235
sS'17699'
p129
F3.737211634904714
sS'17504'
p130
F2.582608695652174
sS'17505'
p131
F3.523076923076923
sS'17506'
p132
F3.1436704709431984
sS'17507'
p133
F2.3513513513513513
sS'17500'
p134
F3.5393939393939395
sS'17501'
p135
F2.7560975609756095
sS'17469'
p136
F3.4184914841849148
sS'17468'
p137
F3.637800252844501
sS'17467'
p138
F3.7971929824561403
sS'17466'
p139
F2.346031746031746
sS'17465'
p140
F3.0022573363431153
sS'17464'
p141
F3.263551401869159
sS'17508'
p142
F3.79002931305493
sS'17509'
p143
F3.328339575530587
sS'17461'
p144
F3.0234113712374584
sS'17460'
p145
F3.9549795361527966
sS'17669'
p146
F2.969849246231156
sS'17668'
p147
F2.4054054054054053
sS'17665'
p148
F3.1782945736434107
sS'17664'
p149
F3.384851586489253
sS'17667'
p150
F2.8793103448275863
sS'17666'
p151
F3.295880149812734
sS'17661'
p152
F4.025763709974236
sS'17660'
p153
F2.8289473684210527
sS'17663'
p154
F3.573934837092732
sS'17662'
p155
F2.998909317544406
sS'17151'
p156
F3.621867881548975
sS'17188'
p157
F3.8221162037825867
sS'17260'
p158
F3.719607843137255
sS'17263'
p159
F3.4704837117472853
sS'17262'
p160
F3.2487562189054726
sS'17265'
p161
F3.1363636363636362
sS'17264'
p162
F3.4141767323585506
sS'17267'
p163
F2.8839590443686007
sS'17266'
p164
F3.458174904942966
sS'17180'
p165
F3.3087581896227127
sS'17409'
p166
F3.0202448210922785
sS'17182'
p167
F3.824
sS'17183'
p168
F2.2611940298507465
sS'17184'
p169
F3.857363741785852
sS'17185'
p170
F2.827027027027027
sS'17186'
p171
F3.146153846153846
sS'17408'
p172
F3.3506493506493507
sS'17760'
p173
F2.8081264108352144
sS'17761'
p174
F2.9183484110415217
sS'17762'
p175
F3.645748987854251
sS'17763'
p176
F3.411854879918242
sS'17764'
p177
F3.8671120895361546
sS'17765'
p178
F2.6996805111821085
sS'17766'
p179
F3.193388429752066
sS'17767'
p180
F3.6715686274509802
sS'17768'
p181
F2.83920704845815
sS'17769'
p182
F2.4985923840568973
sS'17166'
p183
F3.1082802547770703
sS'17405'
p184
F3.5237607363010777
sS'17164'
p185
F2.8931297709923665
sS'17165'
p186
F4.266079295154185
sS'17162'
p187
F3.502923976608187
sS'17163'
p188
F2.9044289044289044
sS'17160'
p189
F4.008213552361396
sS'17404'
p190
F2.9351351351351354
sS'17001'
p191
F3.7478890229191797
sS'17000'
p192
F2.8476190476190477
sS'17003'
p193
F4.043705153294194
sS'17002'
p194
F3.6849521513073618
sS'17005'
p195
F3.2624338624338622
sS'17004'
p196
F3.62363408775669
sS'17168'
p197
F3.019381443298969
sS'17006'
p198
F3.0577507598784193
sS'17158'
p199
F3.298936170212766
sS'17757'
p200
F3.8
sS'17401'
p201
F3.388109000825764
sS'17223'
p202
F3.5364372469635628
sS'17017'
p203
F2.97557003257329
sS'17444'
p204
F3.0580357142857144
sS'17015'
p205
F2.913565426170468
sS'17438'
p206
F3.488844621513944
sS'17715'
p207
F3.7063870352716872
sS'17714'
p208
F3.813627254509018
sS'17717'
p209
F3.3522267206477734
sS'17716'
p210
F3.701488095238095
sS'17167'
p211
F3.2069271758436946
sS'17710'
p212
F2.066666666666667
sS'17713'
p213
F3.7753623188405796
sS'17712'
p214
F3.64
sS'17719'
p215
F2.626315789473684
sS'17718'
p216
F2.1083333333333334
sS'17485'
p217
F3.5928008998875143
sS'17484'
p218
F3.1770334928229667
sS'17487'
p219
F3.0752802989855845
sS'17486'
p220
F2.3634204275534443
sS'17481'
p221
F2.9772200772200774
sS'17480'
p222
F4.3868043314026695
sS'17483'
p223
F3.1114754098360655
sS'17482'
p224
F3.6299838819138106
sS'17489'
p225
F3.5357142857142856
sS'17488'
p226
F3.0674603174603177
sS'17280'
p227
F2.981930365799912
sS'17539'
p228
F3.2777859130180116
sS'17286'
p229
F2.9397590361445785
sS'17535'
p230
F3.746373420683201
sS'17123'
p231
F3.252906976744186
sS'17289'
p232
F2.67621776504298
sS'17288'
p233
F3.1437908496732025
sS'17502'
p234
F2.9813432835820897
sS'17531'
p235
F3.2476190476190476
sS'17503'
p236
F2.9820143884892087
sS'17127'
p237
F2.9232849416453175
sS'17124'
p238
F1.683453237410072
sS'17620'
p239
F2.8445945945945947
sS'17532'
p240
F3.5319148936170213
sS'17621'
p241
F3.4865391518383673
sS'17549'
p242
F3.395255699322243
sS'17623'
p243
F3.334928229665072
sS'17622'
p244
F3.0867512142471667
sS'17625'
p245
F3.2158225310704265
sS'17624'
p246
F3.576167076167076
sS'17238'
p247
F2.909090909090909
sS'17626'
p248
F3.770408163265306
sS'17236'
p249
F2.5067750677506777
sS'17628'
p250
F3.868952314653672
sS'17542'
p251
F2.392405063291139
sS'17543'
p252
F3.727744165946413
sS'17232'
p253
F2.128205128205128
sS'17233'
p254
F3.1068702290076335
sS'17546'
p255
F3.738562091503268
sS'17462'
p256
F2.2777777777777777
sS'17455'
p257
F3.774877650897227
sS'17302'
p258
F3.6347767253044654
sS'17303'
p259
F2.8408682751620207
sS'17300'
p260
F1.7151898734177216
sS'17301'
p261
F3.033333333333333
sS'17306'
p262
F2.393835616438356
sS'17307'
p263
F4.497025056565826
sS'17304'
p264
F3.3053435114503817
sS'17305'
p265
F2.993235625704622
sS'17308'
p266
F3.5339651876081657
sS'17309'
p267
F3.9362745098039214
sS'17410'
p268
F3.3240223463687153
sS'17434'
p269
F3.324733096085409
sS'17435'
p270
F3.7682386134623136
sS'17436'
p271
F3.7388149939540507
sS'17437'
p272
F3.929264475743349
sS'17430'
p273
F2.2785714285714285
sS'17431'
p274
F3.8866485524219994
sS'17432'
p275
F3.902439024390244
sS'17433'
p276
F3.797909407665505
sS'17540'
p277
F3.757977417771232
sS'17439'
p278
F2.5255474452554743
sS'17283'
p279
F3.0854430379746836
sS'17282'
p280
F3.196564885496183
sS'17281'
p281
F2.9259150374834633
sS'17129'
p282
F3.610956020988322
sS'17287'
p283
F3.024582560296846
sS'17538'
p284
F4.040133779264214
sS'17285'
p285
F3.163265306122449
sS'17284'
p286
F3.1785714285714284
sS'17122'
p287
F3.176829268292683
sS'17534'
p288
F3.0720720720720722
sS'17537'
p289
F3.414011872932433
sS'17121'
p290
F2.3706896551724137
sS'17126'
p291
F3.118811881188119
sS'17530'
p292
F3.046511627906977
sS'17533'
p293
F3.755336882292843
sS'17125'
p294
F3.0126182965299684
sS'17559'
p295
F3.2145548498223704
sS'17541'
p296
F3.4393784082988232
sS'17558'
p297
F3.443586299529886
sS'17557'
p298
F4.038073038073038
sS'17556'
p299
F2.7022132796780682
sS'17555'
p300
F3.431784983932223
sS'17226'
p301
F2.412121212121212
sS'17350'
p302
F2.7578740157480315
sS'17658'
p303
F3.301762114537445
sS'17220'
p304
F3.1693548387096775
sS'17056'
p305
F3.578347578347578
sS'17057'
p306
F3.6515742623221055
sS'17054'
p307
F2.5581613508442778
sS'17055'
p308
F3.7952029520295203
sS'17052'
p309
F3.9911131898971
sS'17053'
p310
F3.0064281382656155
sS'17050'
p311
F3.2463199214916583
sS'17051'
p312
F3.00711743772242
sS'17751'
p313
F3.938181818181818
sS'17750'
p314
F2.8636363636363638
sS'17753'
p315
F2.4730538922155687
sS'17550'
p316
F3.3398058252427183
sS'17755'
p317
F3.172661870503597
sS'17754'
p318
F3.24234693877551
sS'17058'
p319
F2.868245743893412
sS'17756'
p320
F3.770463651974814
sS'17199'
p321
F3.8548387096774195
sS'17705'
p322
F2.267857142857143
sS'17629'
p323
F2.489130434782609
sS'17261'
p324
F3.556971904266389
sS'17189'
p325
F3.8927108380087274
sS'17355'
p326
F3.5796273709273367
sS'17606'
p327
F2.2298850574712645
sS'17357'
p328
F3.3400908773156237
sS'17379'
p329
F3.1580547112462005
sS'17378'
p330
F3.958955223880597
sS'17128'
p331
F2.943396226415094
sS'17373'
p332
F2.6814159292035398
sS'17372'
p333
F2.779585798816568
sS'17371'
p334
F2.9401709401709404
sS'17370'
p335
F3.8238188976377954
sS'17377'
p336
F3.4457831325301207
sS'17376'
p337
F2.8446969696969697
sS'17375'
p338
F3.311526479750779
sS'17374'
p339
F3.5854092526690393
sS'17269'
p340
F2.431216931216931
sS'17601'
p341
F3.5294117647058822
sS'17181'
p342
F3.2531702898550723
sS'17352'
p343
F2.381443298969072
sS'17547'
p344
F3.083582089552239
sS'17759'
p345
F2.6912751677852347
sS'17758'
p346
F2.9155305275637224
sS'17187'
p347
F4.101459921035717
sS'17478'
p348
F2.8536585365853657
sS'17570'
p349
F3.93642483171279
sS'17573'
p350
F3.3015410245730945
sS'17572'
p351
F3.295314718409844
sS'17575'
p352
F3.0574886535552195
sS'17574'
p353
F3.598968137767552
sS'17577'
p354
F1.4
sS'17576'
p355
F2.243377483443709
sS'17470'
p356
F3.6222222222222222
sS'17578'
p357
F3.479145601617796
sS'17472'
p358
F3.7450077945215647
sS'17473'
p359
F2.967136150234742
sS'17474'
p360
F4.095047341587764
sS'17475'
p361
F3.342735042735043
sS'17476'
p362
F3.7674943566591423
sS'17477'
p363
F3.1149425287356323
sS'17678'
p364
F3.3702531645569622
sS'17679'
p365
F3.284263959390863
sS'17676'
p366
F2.5
sS'17677'
p367
F3.997275204359673
sS'17674'
p368
F3.2095343680709534
sS'17675'
p369
F3.2978902953586497
sS'17672'
p370
F3.74019702530423
sS'17673'
p371
F2.9927007299270074
sS'17670'
p372
F3.495630461922597
sS'17671'
p373
F3.8027038672842832
sS'17311'
p374
F3.8438155136268346
sS'17752'
p375
F2.991537376586742
sS'17259'
p376
F3.835805255521522
sS'17231'
p377
F2.8
sS'17272'
p378
F2.376854599406528
sS'17273'
p379
F2.454397394136808
sS'17270'
p380
F3.053858967240422
sS'17271'
p381
F3.021996615905245
sS'17276'
p382
F3.0234113712374584
sS'17277'
p383
F3.0164439876670093
sS'17274'
p384
F2.6115013169446883
sS'17275'
p385
F3.7660069848661233
sS'17278'
p386
F2.7371794871794872
sS'17279'
p387
F3.557184750733138
sS'17153'
p388
F2.7934875749785775
sS'17152'
p389
F3.308090417840018
sS'17018'
p390
F2.9473684210526314
sS'17150'
p391
F2.892156862745098
sS'17157'
p392
F4.295086716218791
sS'17156'
p393
F3.1183431952662723
sS'17155'
p394
F3.0142566191446027
sS'17154'
p395
F3.944734282429923
sS'17012'
p396
F4.00834879406308
sS'17013'
p397
F2.7471264367816093
sS'17010'
p398
F3.6176277850589775
sS'17406'
p399
F2.66
sS'17016'
p400
F3.7542372881355934
sS'17400'
p401
F1.8130841121495327
sS'17014'
p402
F3.048990116029222
sS'17402'
p403
F3.936382045224435
sS'17009'
p404
F3.0975800156128024
sS'17008'
p405
F3.4342557720648434
sS'17255'
p406
F3.397727272727273
sS'17081'
p407
F3.5630703711214764
sS'17080'
p408
F3.0
sS'17083'
p409
F3.3399482312338225
sS'17082'
p410
F2.725321888412017
sS'17085'
p411
F4.48234947616443
sS'17084'
p412
F3.705426356589147
sS'17087'
p413
F3.871609403254973
sS'17086'
p414
F3.077120822622108
sS'17089'
p415
F3.4262295081967213
sS'17088'
p416
F3.78986452745695
sS'17114'
p417
F2.0973451327433628
sS'17161'
p418
F3.4203592814371255
sS'17706'
p419
F3.4101941747572817
sS'17707'
p420
F3.8995397764628534
sS'17704'
p421
F2.9007506255212676
sS'17268'
p422
F2.6153846153846154
sS'17702'
p423
F2.408536585365854
sS'17703'
p424
F2.7886522218141754
sS'17700'
p425
F3.361764705882353
sS'17701'
p426
F3.1131178707224336
sS'17708'
p427
F3.172706245181187
sS'17709'
p428
F3.8595081738158448
sS'17496'
p429
F3.014336917562724
sS'17497'
p430
F3.7770935960591134
sS'17494'
p431
F3.532995391705069
sS'17495'
p432
F2.913978494623656
sS'17492'
p433
F3.3528099910793934
sS'17493'
p434
F3.2564102564102564
sS'17490'
p435
F3.4963715529753268
sS'17491'
p436
F3.3579534142942467
sS'17498'
p437
F2.868395061728395
sS'17499'
p438
F3.8878048780487804
sS'17007'
p439
F3.6701902748414374
sS'17039'
p440
F3.7212317666126418
sS'17169'
p441
F3.808684897622647
sS'17463'
p442
F2.086842105263158
sS'17011'
p443
F3.088888888888889
sS'17688'
p444
F3.510204081632653
sS'17407'
p445
F3.047222222222222
sS'17632'
p446
F3.892828146143437
sS'17633'
p447
F3.401728553137004
sS'17209'
p448
F2.603896103896104
sS'17208'
p449
F3.046153846153846
sS'17636'
p450
F1.7310344827586206
sS'17637'
p451
F3.2611940298507465
sS'17634'
p452
F2.1470588235294117
sS'17101'
p453
F2.560810810810811
sS'17203'
p454
F2.9224242424242424
sS'17202'
p455
F3.3208955223880596
sS'17201'
p456
F3.439252336448598
sS'17200'
p457
F4.0625
sS'17207'
p458
F3.5758884743765953
sS'17206'
p459
F2.347058823529412
sS'17205'
p460
F3.495145631067961
sS'17204'
p461
F2.3755458515283845
sS'17423'
p462
F3.588477366255144
sS'17451'
p463
F2.9497206703910615
sS'17130'
p464
F3.5516717325227964
sS'17456'
p465
F2.7463235294117645
sS'17421'
p466
F2.7966101694915255
sS'17105'
p467
F2.4757281553398056
sS'17420'
p468
F3.35286783042394
sS'17106'
p469
F2.784
sS'17655'
p470
F2.414839797639123
sS'17427'
p471
F3.7704918032786887
sS'17107'
p472
F3.5238095238095237
sS'17426'
p473
F3.7469772177675957
sS'17425'
p474
F2.435875943000838
sS'17339'
p475
F4.1102326695697515
sS'17338'
p476
F3.2512287334593575
sS'17337'
p477
F3.831460674157303
sS'17336'
p478
F3.1153846153846154
sS'17335'
p479
F3.868791627021884
sS'17424'
p480
F4.012163769617436
sS'17333'
p481
F3.3434343434343434
sS'17332'
p482
F2.6
sS'17331'
p483
F3.4174174174174174
sS'17330'
p484
F3.4363423994660436
sS'17441'
p485
F3.67091242435521
sS'17116'
p486
F3.0316455696202533
sS'17443'
p487
F3.8140662894098627
sS'17442'
p488
F2.7169811320754715
sS'17445'
p489
F3.145631067961165
sS'17112'
p490
F3.703535123653467
sS'17111'
p491
F3.589266547406082
sS'17110'
p492
F2.72972972972973
sS'17449'
p493
F3.8307012002526846
sS'17448'
p494
F3.057392996108949
sS'17119'
p495
F3.0943396226415096
sS'17118'
p496
F1.9927007299270072
sS'17687'
p497
F4.269122193843258
sS'17686'
p498
F3.829126213592233
sS'17685'
p499
F3.168807339449541
sS'17684'
p500
F3.9368421052631577
sS'17298'
p501
F3.633077765607886
sS'17682'
p502
F4.3007028537556105
sS'17681'
p503
F3.793361097501225
sS'17680'
p504
F4.040574282147316
sS'17526'
p505
F3.9732772032579846
sS'17527'
p506
F2.942727272727273
sS'17524'
p507
F3.811418685121107
sS'17525'
p508
F3.77490462060195
sS'17522'
p509
F3.584888888888889
sS'17291'
p510
F3.4563318777292578
sS'17292'
p511
F3.8759845683973637
sS'17293'
p512
F2.96677683674172
sS'17691'
p513
F4.1558441558441555
sS'17403'
p514
F3.8983721953365595
sS'17519'
p515
F2.7333333333333334
sS'17693'
p516
F3.006107275624004
sS'17650'
p517
F3.2571649883811
sS'17063'
p518
F3.0111301369863015
sS'17062'
p519
F2.674491392801252
sS'17061'
p520
F3.3822525597269624
sS'17749'
p521
F3.4972375690607733
sS'17067'
p522
F3.0085836909871246
sS'17066'
p523
F3.795165394402036
sS'17065'
p524
F2.103448275862069
sS'17064'
p525
F3.486484973977279
sS'17742'
p526
F2.8072590738423027
sS'17743'
p527
F3.1049449697721285
sS'17740'
p528
F3.62157721796276
sS'17068'
p529
F3.0
sS'17746'
p530
F3.3347022587268995
sS'17747'
p531
F3.5267958950969214
sS'17744'
p532
F3.511627906976744
sS'17745'
p533
F3.835236541598695
sS'17593'
p534
F3.867430441898527
sS'17592'
p535
F2.8291746641074855
sS'17591'
p536
F4.023909267395525
sS'17590'
p537
F3.416243654822335
sS'17597'
p538
F3.6435368754956383
sS'17596'
p539
F3.00749063670412
sS'17595'
p540
F2.5101500441306266
sS'17594'
p541
F4.033361847733105
sS'17599'
p542
F3.779874213836478
sS'17598'
p543
F3.9540581929555896
sS'17516'
p544
F3.2911392405063293
sS'17251'
p545
F3.152606737915695
sS'17452'
p546
F3.1003932268678276
sS'17553'
p547
F2.5185185185185186
sS'17711'
p548
F3.1691711100339313
sS'17450'
p549
F3.3320363164721143
sS'17630'
p550
F1.782442748091603
sS'17391'
p551
F3.717248908296943
sS'17631'
p552
F3.839437302934756
sS'17390'
p553
F3.1523809523809523
sS'17319'
p554
F3.816546762589928
sS'17641'
p555
F4.24077578051088
sS'17640'
p556
F3.128205128205128
sS'17395'
p557
F3.3915378816434227
sS'17635'
p558
F3.002
sS'17394'
p559
F2.7915057915057915
sS'17397'
p560
F3.8478991596638656
sS'17644'
p561
F2.449238578680203
sS'17638'
p562
F3.4583482944344706
sS'17211'
p563
F3.986399183951037
sS'17562'
p564
F3.432847475273295
sS'17563'
p565
F3.6650528169014085
sS'17560'
p566
F3.8390960386807778
sS'17561'
p567
F3.1350537634408604
sS'17566'
p568
F3.3883495145631066
sS'17567'
p569
F2.6758620689655173
sS'17564'
p570
F3.1043083900226756
sS'17565'
p571
F2.9226907630522088
sS'17536'
p572
F4.092592592592593
sS'17568'
p573
F3.0264900662251657
sS'17569'
p574
F3.0638297872340425
sS'17399'
p575
F3.0
sS'17398'
p576
F3.0086412943555803
sS'17649'
p577
F3.3524522028262678
sS'17648'
p578
F3.03330411919369
sS'17643'
p579
F2.8476190476190477
sS'17642'
p580
F3.7222222222222223
sS'17393'
p581
F2.7181700474751835
sS'17392'
p582
F2.909090909090909
sS'17647'
p583
F2.6709844559585494
sS'17646'
p584
F3.252702702702703
sS'17645'
p585
F3.677455357142857
sS'17396'
p586
F3.0579877112135176
sS'17145'
p587
F3.2911392405063293
sS'17193'
p588
F2.485074626865672
sS'17047'
p589
F3.00982486117044
sS'17219'
p590
F4.501836249729963
sS'17364'
p591
F3.450381679389313
sS'17365'
p592
F2.2830188679245285
sS'17366'
p593
F2.145348837209302
sS'17367'
p594
F2.513888888888889
sS'17360'
p595
F3.3636363636363638
sS'17361'
p596
F2.9731474969631098
sS'17362'
p597
F2.6575342465753424
sS'17248'
p598
F3.3107944208611277
sS'17247'
p599
F3.441913963653094
sS'17041'
p600
F2.3684210526315788
sS'17245'
p601
F3.91247625079164
sS'17244'
p602
F3.6142011834319527
sS'17368'
p603
F2.4753086419753085
sS'17369'
p604
F3.2134387351778657
sS'17241'
p605
F2.625812743823147
sS'17040'
p606
F2.4285714285714284
sS'17027'
p607
F3.0535870516185475
sS'17026'
p608
F2.8952
sS'17025'
p609
F2.696414950419527
sS'17024'
p610
F3.125
sS'17023'
p611
F3.3722492471623813
sS'17022'
p612
F2.7888888888888888
sS'17021'
p613
F3.7243589743589745
sS'17020'
p614
F3.240025332488917
sS'17029'
p615
F3.309090909090909
sS'17028'
p616
F3.1981268011527377
sS'17659'
p617
F2.1123595505617976
sS'17148'
p618
F2.8597014925373134
sS'17149'
p619
F3.388105290468665
sS'17418'
p620
F3.780920421860019
sS'17419'
p621
F3.8503649635036497
sS'17144'
p622
F3.9789473684210526
sS'17417'
p623
F2.4672960215778827
sS'17146'
p624
F4.161298194241093
sS'17147'
p625
F3.3097662412161193
sS'17140'
p626
F3.6939655172413794
sS'17413'
p627
F3.48582995951417
sS'17520'
p628
F3.1774647887323946
sS'17143'
p629
F1.8924050632911393
sS'17049'
p630
F3.0662020905923346
sS'17721'
p631
F3.2467248908296944
sS'17092'
p632
F3.466887417218543
sS'17093'
p633
F3.656934306569343
sS'17090'
p634
F3.596638655462185
sS'17091'
p635
F3.0400801603206413
sS'17096'
p636
F3.4136470588235293
sS'17097'
p637
F3.0204567078972406
sS'17094'
p638
F1.8048780487804879
sS'17095'
p639
F3.5767634854771786
sS'17098'
p640
F3.736842105263158
sS'17099'
p641
F2.761467889908257
sS'17249'
p642
F3.4440789473684212
sS'17363'
p643
F3.4222972972972974
sS'17733'
p644
F1.9260700389105059
sS'17732'
p645
F3.9186746987951806
sS'17731'
p646
F1.6142857142857143
sS'17730'
p647
F3.2865282865282865
sS'17737'
p648
F3.664335664335664
sS'17736'
p649
F2.2270531400966185
sS'17735'
p650
F3.525252525252525
sS'17734'
p651
F3.402684563758389
sS'17739'
p652
F2.903225806451613
sS'17738'
p653
F3.742603550295858
sS'17243'
p654
F3.308623298033283
sS'17242'
p655
F2.444672131147541
sS'17171'
p656
F3.2362960668937752
sS'17240'
p657
F3.3181818181818183
sS'17079'
p658
F2.698519767659734
sS'17651'
p659
F3.134228187919463
sS'17604'
p660
F3.3258785942492013
sS'17603'
p661
F3.161946595769275
sS'17179'
p662
F3.368961776529896
sS'17237'
p663
F2.896
sS'17071'
p664
F3.6517391304347826
sS'17059'
p665
F3.7528430629264595
sS'17213'
p666
F3.6690140845070425
sS'17359'
p667
F3.075968992248062
sS'17358'
p668
F3.2590287750651563
sS'17609'
p669
F2.0673400673400675
sS'17608'
p670
F1.5779467680608366
sS'17607'
p671
F2.9918918918918918
sS'17354'
p672
F3.503722084367246
sS'17605'
p673
F3.3875476493011436
sS'17356'
p674
F3.125
sS'17351'
p675
F3.031609195402299
sS'17602'
p676
F3.197802197802198
sS'17353'
p677
F3.873134328358209
sS'17600'
p678
F3.5857988165680474
sS'17411'
p679
F3.7609437602018105
sS'17334'
p680
F3.033313503866746
sS'17235'
p681
F4.032380952380953
sS'17328'
p682
F4.123312958222315
sS'17329'
p683
F3.18610747051114
sS'17320'
p684
F2.8098471986417657
sS'17321'
p685
F3.8926188206455126
sS'17322'
p686
F4.165314401622718
sS'17323'
p687
F3.0647816750178953
sS'17324'
p688
F3.880841164127361
sS'17325'
p689
F3.5251798561151078
sS'17326'
p690
F3.0765027322404372
sS'17327'
p691
F2.1066666666666665
sS'17100'
p692
F2.949592290585619
sS'17453'
p693
F2.4410609037328093
sS'17102'
p694
F2.69811320754717
sS'17103'
p695
F2.997442455242967
sS'17104'
p696
F3.469571480014404
sS'17457'
p697
F3.7680672268907562
sS'17454'
p698
F3.0762331838565022
sS'17440'
p699
F2.855855855855856
sS'17108'
p700
F3.0
sS'17109'
p701
F3.5745734727572924
sS'17458'
p702
F3.4332801701222753
sS'17459'
p703
F3.5702479338842976
sS'17115'
p704
F2.772727272727273
sS'17690'
p705
F2.629781420765027
sS'17416'
p706
F2.4508196721311477
sS'17692'
p707
F3.04378999762977
sS'17518'
p708
F2.219298245614035
sS'17694'
p709
F3.3846153846153846
sS'17695'
p710
F3.3682539682539683
sS'17696'
p711
F2.982142857142857
sS'17697'
p712
F3.0399442638179286
sS'17698'
p713
F2.8839285714285716
sS'17113'
p714
F3.322215359275273
sS'17511'
p715
F3.25104821802935
sS'17510'
p716
F1.778443113772455
sS'17517'
p717
F3.1142857142857143
sS'17414'
p718
F3.1252796420581657
sS'17515'
p719
F4.106719367588933
sS'17514'
p720
F2.535483870967742
sS'17019'
p721
F3.193548387096774
sS'17415'
p722
F2.520361990950226
sS'17447'
p723
F2.9955849889624724
sS'17412'
p724
F4.006565030272084
sS'17446'
p725
F3.670995670995671
sS'17141'
p726
F2.75
sS'17214'
p727
F3.033707865168539
sS'17215'
p728
F3.8435796743288533
sS'17216'
p729
F3.374379199532574
sS'17217'
p730
F3.4585253456221197
sS'17210'
p731
F3.865181711606096
sS'17142'
p732
F3.1948051948051948
sS'17212'
p733
F3.822990353697749
sS'17198'
p734
F3.433644859813084
sS'17197'
p735
F4.018922852983988
sS'17196'
p736
F3.379014989293362
sS'17195'
p737
F3.535706189072773
sS'17194'
p738
F2.911032028469751
sS'17218'
p739
F2.392523364485981
sS'17192'
p740
F3.235294117647059
sS'17191'
p741
F3.6196943972835314
sS'17190'
p742
F3.8020679468242244
sS'17770'
p743
F2.816503800217155
sS'17175'
p744
F3.3201825013419217
sS'17174'
p745
F3.875316426566024
sS'17177'
p746
F3.8802588996763756
sS'17176'
p747
F3.7451591942820013
sS'17078'
p748
F3.365994236311239
sS'17170'
p749
F4.142287234042553
sS'17173'
p750
F3.692727272727273
sS'17172'
p751
F3.590909090909091
sS'17074'
p752
F3.2842105263157895
sS'17075'
p753
F3.3203494721514377
sS'17076'
p754
F2.366591928251121
sS'17077'
p755
F3.5631901840490796
sS'17070'
p756
F3.1837088388214903
sS'17178'
p757
F3.976943346508564
sS'17072'
p758
F3.626984126984127
sS'17073'
p759
F2.408450704225352
sS'17588'
p760
F2.866822429906542
sS'17589'
p761
F2.9731216773857763
sS'17584'
p762
F3.710714285714286
sS'17585'
p763
F3.7163636363636363
sS'17586'
p764
F2.8867747972551467
sS'17587'
p765
F3.073482428115016
sS'17580'
p766
F2.9985564585115485
sS'17581'
p767
F2.708994708994709
sS'17582'
p768
F2.621761658031088
sS'17583'
p769
F3.113235294117647
sS'17683'
p770
F2.9787581699346406
sS'17299'
p771
F3.6373541606402466
s.