(dp0
S'3922'
p1
F2.759259259259259
sS'3923'
p2
F3.089860485554213
sS'3920'
p3
F2.997544957957405
sS'3921'
p4
F3.546070460704607
sS'3926'
p5
F2.540384759338274
sS'3927'
p6
F3.980225988700565
sS'3924'
p7
F3.9952830188679247
sS'3925'
p8
F3.5147040924283988
sS'3928'
p9
F4.339553293751767
sS'3929'
p10
F3.1386138613861387
sS'3571'
p11
F2.9942556832070397
sS'3711'
p12
F3.0163934426229506
sS'3710'
p13
F3.3556851311953353
sS'3557'
p14
F2.8250324815937637
sS'3556'
p15
F1.6274509803921569
sS'3555'
p16
F2.1466666666666665
sS'3554'
p17
F3.989648033126294
sS'3553'
p18
F2.69811320754717
sS'3552'
p19
F2.2465753424657535
sS'3551'
p20
F3.76054057858802
sS'3550'
p21
F3.1182266009852215
sS'3250'
p22
F2.8577981651376145
sS'3251'
p23
F2.185567010309278
sS'3252'
p24
F2.876543209876543
sS'3253'
p25
F3.320613542835765
sS'3254'
p26
F2.979641693811075
sS'3255'
p27
F2.5769854132901133
sS'3256'
p28
F3.1402086148941333
sS'3257'
p29
F2.923076923076923
sS'3856'
p30
F3.6153846153846154
sS'3857'
p31
F2.415032679738562
sS'3854'
p32
F3.900153609831029
sS'3855'
p33
F3.1170731707317074
sS'3852'
p34
F3.746312684365782
sS'3853'
p35
F2.933333333333333
sS'3850'
p36
F1.8103448275862069
sS'3998'
p37
F3.9743016759776535
sS'3997'
p38
F2.842767295597484
sS'3996'
p39
F2.392857142857143
sS'3995'
p40
F3.1489583333333333
sS'3994'
p41
F2.462242562929062
sS'3993'
p42
F3.3919631093544136
sS'3992'
p43
F2.6748466257668713
sS'3858'
p44
F2.9263602891040503
sS'3990'
p45
F3.107073329007138
sS'3495'
p46
F3.7679773290825365
sS'3719'
p47
F3.657232704402516
sS'3718'
p48
F2.837638376383764
sS'3333'
p49
F3.2568383975745148
sS'3332'
p50
F2.508385744234801
sS'3331'
p51
F3.5793443574122423
sS'3330'
p52
F3.5676625659050965
sS'3337'
p53
F2.1202531645569622
sS'3336'
p54
F3.429541595925297
sS'3335'
p55
F2.7270531400966185
sS'3334'
p56
F3.2065021071643587
sS'3449'
p57
F2.6776625824693685
sS'3339'
p58
F3.193798449612403
sS'3338'
p59
F3.8867924528301887
sS'3768'
p60
F2.946264262053736
sS'3659'
p61
F3.4841025641025642
sS'3773'
p62
F3.606784519827998
sS'3772'
p63
F2.3476005188067446
sS'3771'
p64
F3.6363636363636362
sS'3770'
p65
F3.4012345679012346
sS'3777'
p66
F3.940675963129284
sS'3776'
p67
F3.283333333333333
sS'3775'
p68
F2.7101157523905384
sS'3774'
p69
F2.726384364820847
sS'3779'
p70
F3.511727078891258
sS'3778'
p71
F3.233245729303548
sS'3959'
p72
F3.4436936936936937
sS'3140'
p73
F2.5398230088495577
sS'3141'
p74
F2.795918367346939
sS'3142'
p75
F2.5782828282828283
sS'3143'
p76
F3.2617621899059026
sS'3144'
p77
F3.1052631578947367
sS'3145'
p78
F3.3653723742838957
sS'3146'
p79
F2.9297752808988764
sS'3147'
p80
F3.746642385613476
sS'3148'
p81
F3.4737887102556324
sS'3149'
p82
F3.375886524822695
sS'3670'
p83
F3.102732461235416
sS'3671'
p84
F3.2884012539184955
sS'3676'
p85
F3.5806451612903225
sS'3677'
p86
F3.6598360655737703
sS'3674'
p87
F3.491289198606272
sS'3675'
p88
F3.0071513706793804
sS'3386'
p89
F2.78525641025641
sS'3387'
p90
F3.4658493870402802
sS'3384'
p91
F3.7641311933007677
sS'3385'
p92
F3.334932619707541
sS'3382'
p93
F2.9642105263157896
sS'3383'
p94
F3.248847926267281
sS'3380'
p95
F3.063711911357341
sS'3381'
p96
F3.806451612903226
sS'3027'
p97
F2.838888888888889
sS'3026'
p98
F3.6493594066082267
sS'3025'
p99
F3.9584664536741214
sS'3024'
p100
F2.6534653465346536
sS'3023'
p101
F4.142226581657676
sS'3022'
p102
F3.2758620689655173
sS'3388'
p103
F2.5376146788990828
sS'3020'
p104
F3.9148936170212765
sS'3479'
p105
F2.4271356783919598
sS'3951'
p106
F2.942279942279942
sS'3963'
p107
F2.9661016949152543
sS'3580'
p108
F2.7950819672131146
sS'3581'
p109
F3.1317847286108558
sS'3582'
p110
F3.729674418604651
sS'3819'
p111
F3.3959537572254335
sS'3584'
p112
F2.9834437086092715
sS'3585'
p113
F2.9827586206896552
sS'3586'
p114
F3.129032258064516
sS'3259'
p115
F3.7363636363636363
sS'3588'
p116
F3.88659793814433
sS'3589'
p117
F2.3333333333333335
sS'3743'
p118
F3.2161223071577485
sS'3002'
p119
F3.1153846153846154
sS'3092'
p120
F2.54916067146283
sS'3093'
p121
F2.98564674096589
sS'3090'
p122
F3.174421696357352
sS'3248'
p123
F3.506276150627615
sS'3096'
p124
F2.252307692307692
sS'3097'
p125
F2.7551020408163267
sS'3094'
p126
F2.4468085106382977
sS'3095'
p127
F3.542666261767385
sS'3098'
p128
F3.1914315139031926
sS'3099'
p129
F3.792682926829268
sS'3809'
p130
F2.8617795187465025
sS'3808'
p131
F2.7334818114328137
sS'3805'
p132
F2.78125
sS'3804'
p133
F3.3894839337877314
sS'3807'
p134
F3.492763854571126
sS'3806'
p135
F2.4453125
sS'3801'
p136
F3.7062221055395117
sS'3800'
p137
F3.1538461538461537
sS'3803'
p138
F3.3854389721627407
sS'3802'
p139
F3.36056338028169
sS'3298'
p140
F2.9316239316239314
sS'3559'
p141
F3.589527027027027
sS'3294'
p142
F3.1470588235294117
sS'3295'
p143
F2.5404907975460125
sS'3296'
p144
F2.5371900826446283
sS'3297'
p145
F2.6311475409836067
sS'3290'
p146
F4.404083000530623
sS'3291'
p147
F3.7404426559356136
sS'3292'
p148
F3.2434210526315788
sS'3293'
p149
F2.887728459530026
sS'3452'
p150
F3.183574879227053
sS'3453'
p151
F3.8853713689337277
sS'3450'
p152
F3.700831024930748
sS'3518'
p153
F2.7058823529411766
sS'3456'
p154
F4.6709891019450955
sS'3457'
p155
F3.3141025641025643
sS'3454'
p156
F3.5725806451612905
sS'3455'
p157
F2.7204100652376515
sS'3513'
p158
F3.9823542306006137
sS'3512'
p159
F4.152777777777778
sS'3458'
p160
F2.897590361445783
sS'3510'
p161
F3.4512069851052902
sS'3517'
p162
F3.8623853211009176
sS'3516'
p163
F3.2435897435897436
sS'3515'
p164
F3.2294919454770756
sS'3514'
p165
F2.9136690647482015
sS'3898'
p166
F3.2960893854748603
sS'3899'
p167
F3.6714031971580816
sS'3892'
p168
F2.8220338983050848
sS'3893'
p169
F3.518712213938652
sS'3890'
p170
F2.942759648195319
sS'3891'
p171
F2.536723163841808
sS'3896'
p172
F3.6840390879478826
sS'3897'
p173
F1.8877551020408163
sS'3894'
p174
F3.027406054022024
sS'3895'
p175
F3.5390625
sS'3467'
p176
F3.2032967032967035
sS'3999'
p177
F3.94611223082635
sS'3466'
p178
F3.298378776713338
sS'3851'
p179
F4.023494860499266
sS'3018'
p180
F3.495256166982922
sS'3019'
p181
F3.7828947368421053
sS'3560'
p182
F3.2551724137931033
sS'3207'
p183
F3.5934579439252334
sS'3206'
p184
F3.066666666666667
sS'3205'
p185
F2.5643564356435644
sS'3204'
p186
F2.267857142857143
sS'3203'
p187
F2.5
sS'3202'
p188
F3.3016627078384797
sS'3201'
p189
F3.496153846153846
sS'3200'
p190
F3.532347504621072
sS'3209'
p191
F3.3475366178428763
sS'3208'
p192
F3.158269720101781
sS'3966'
p193
F3.6588825995310614
sS'3399'
p194
F2.116883116883117
sS'3964'
p195
F2.573170731707317
sS'3965'
p196
F4.305074971164936
sS'3962'
p197
F4.4155228792940795
sS'3991'
p198
F2.46875
sS'3960'
p199
F3.6403452975920034
sS'3961'
p200
F3.7146118721461185
sS'3859'
p201
F2.671361502347418
sS'3968'
p202
F3.378228782287823
sS'3969'
p203
F3.0853658536585367
sS'3355'
p204
F3.5572892108534444
sS'3638'
p205
F3.534106118546845
sS'3639'
p206
F2.7580645161290325
sS'3636'
p207
F3.796875
sS'3637'
p208
F2.6785714285714284
sS'3634'
p209
F2.7732558139534884
sS'3635'
p210
F3.106951871657754
sS'3632'
p211
F1.9242424242424243
sS'3633'
p212
F3.787518573551263
sS'3630'
p213
F2.8732394366197185
sS'3631'
p214
F2.6506276150627617
sS'3063'
p215
F3.1494252873563218
sS'3062'
p216
F3.6201923076923075
sS'3061'
p217
F3.535211267605634
sS'3060'
p218
F2.2688524590163937
sS'3067'
p219
F4.348484848484849
sS'3506'
p220
F3.263843182143368
sS'3065'
p221
F3.454320987654321
sS'3064'
p222
F2.1798365122615806
sS'3069'
p223
F3.5595238095238093
sS'3068'
p224
F3.1192307692307693
sS'3348'
p225
F3.909727626459144
sS'3349'
p226
F3.2666666666666666
sS'3342'
p227
F3.794472084024323
sS'3343'
p228
F2.8316953316953315
sS'3340'
p229
F2.8771929824561404
sS'3341'
p230
F2.9863013698630136
sS'3346'
p231
F3.889655172413793
sS'3347'
p232
F3.23581702574233
sS'3344'
p233
F3.029126213592233
sS'3345'
p234
F3.7944862155388472
sS'3079'
p235
F4.195190529041805
sS'3579'
p236
F3.3175395549538877
sS'3708'
p237
F3.395005675368899
sS'3709'
p238
F2.8401162790697674
sS'3702'
p239
F3.793103448275862
sS'3703'
p240
F3.2100124636476943
sS'3700'
p241
F3.7703180212014136
sS'3701'
p242
F3.5143200962695547
sS'3706'
p243
F3.366533864541833
sS'3707'
p244
F3.15625
sS'3704'
p245
F3.186968838526912
sS'3705'
p246
F3.270175438596491
sS'3119'
p247
F4.062256809338521
sS'3118'
p248
F1.6515151515151516
sS'3117'
p249
F3.5730337078651684
sS'3116'
p250
F3.4620135886349597
sS'3115'
p251
F4.248618784530387
sS'3114'
p252
F3.357348703170029
sS'3113'
p253
F3.19574797811032
sS'3112'
p254
F3.9793510324483776
sS'3111'
p255
F2.953358208955224
sS'3110'
p256
F2.5277777777777777
sS'3519'
p257
F2.3527272727272726
sS'3416'
p258
F2.761888111888112
sS'3417'
p259
F3.096885813148789
sS'3414'
p260
F3.5446715782919997
sS'3415'
p261
F3.2134387351778657
sS'3412'
p262
F2.934959349593496
sS'3413'
p263
F3.4088983050847457
sS'3410'
p264
F3.676525821596244
sS'3411'
p265
F2.5914893617021275
sS'3498'
p266
F3.722689075630252
sS'3418'
p267
F3.270214872987725
sS'3419'
p268
F3.9769713886950453
sS'3799'
p269
F3.3459119496855347
sS'3798'
p270
F4.162278651918783
sS'3795'
p271
F3.4482758620689653
sS'3794'
p272
F3.9523809523809526
sS'3797'
p273
F3.70917225950783
sS'3796'
p274
F3.5883266066438995
sS'3791'
p275
F2.983673469387755
sS'3790'
p276
F3.245614035087719
sS'3793'
p277
F2.0555555555555554
sS'3792'
p278
F2.0874035989717226
sS'3187'
p279
F3.184304399524376
sS'3939'
p280
F3.812807881773399
sS'3499'
p281
F3.5939393939393938
sS'3834'
p282
F2.066079295154185
sS'3835'
p283
F3.0895676400784233
sS'3836'
p284
F2.7611940298507465
sS'3837'
p285
F3.7313432835820897
sS'3830'
p286
F3.1447645818692904
sS'3938'
p287
F4.144542715395205
sS'3832'
p288
F2.8472222222222223
sS'3833'
p289
F3.694488188976378
sS'3935'
p290
F3.5553083673217154
sS'3934'
p291
F3.4467793513019642
sS'3937'
p292
F2.588709677419355
sS'3936'
p293
F3.054701106286948
sS'3838'
p294
F3.774774774774775
sS'3930'
p295
F2.4873949579831933
sS'3933'
p296
F3.217741935483871
sS'3932'
p297
F3.4671280276816607
sS'3562'
p298
F3.108527131782946
sS'3563'
p299
F2.872014872014872
sS'3249'
p300
F2.813679245283019
sS'3561'
p301
F1.7135135135135136
sS'3566'
p302
F2.295774647887324
sS'3567'
p303
F2.264801297648013
sS'3564'
p304
F2.7042682926829267
sS'3565'
p305
F3.477201531500174
sS'3243'
p306
F3.2981651376146788
sS'3242'
p307
F3.2047423620611033
sS'3241'
p308
F3.1767241379310347
sS'3240'
p309
F3.684531059683313
sS'3247'
p310
F4.142857142857143
sS'3246'
p311
F2.726937269372694
sS'3245'
p312
F3.196940726577438
sS'3244'
p313
F3.347457627118644
sS'3841'
p314
F3.457635009310987
sS'3840'
p315
F3.264101564675093
sS'3843'
p316
F2.6779661016949152
sS'3842'
p317
F3.5489864864864864
sS'3845'
p318
F1.6422764227642277
sS'3844'
p319
F1.6
sS'3847'
p320
F3.411764705882353
sS'3846'
p321
F2.869918699186992
sS'3849'
p322
F1.7416974169741697
sS'3848'
p323
F2.6416666666666666
sS'3889'
p324
F2.707033639143731
sS'3308'
p325
F2.6
sS'3309'
p326
F3.0371045674172668
sS'3306'
p327
F3.21280276816609
sS'3307'
p328
F3.2933333333333334
sS'3304'
p329
F3.1561338289962824
sS'3305'
p330
F3.6788036410923275
sS'3302'
p331
F3.006993006993007
sS'3303'
p332
F3.9607843137254903
sS'3300'
p333
F3.130434782608696
sS'3301'
p334
F3.76371897937784
sS'3888'
p335
F3.8445287107258936
sS'3451'
p336
F3.4591866166714738
sS'3665'
p337
F2.249158249158249
sS'3664'
p338
F2.685810810810811
sS'3667'
p339
F1.7625838926174497
sS'3666'
p340
F3.5532608695652175
sS'3661'
p341
F3.0505050505050506
sS'3660'
p342
F3.1185185185185187
sS'3748'
p343
F3.2644628099173554
sS'3749'
p344
F2.750463821892393
sS'3746'
p345
F3.5577822311289244
sS'3747'
p346
F3.6525735294117645
sS'3744'
p347
F3.1467391304347827
sS'3745'
p348
F2.166201117318436
sS'3669'
p349
F2.8976377952755907
sS'3668'
p350
F4.245820433436532
sS'3740'
p351
F3.5800809482509397
sS'3741'
p352
F3.599067599067599
sS'3153'
p353
F3.980714084903008
sS'3152'
p354
F3.0926885434657456
sS'3151'
p355
F3.3983001323456112
sS'3150'
p356
F3.99008356545961
sS'3157'
p357
F3.361851332398317
sS'3156'
p358
F2.857142857142857
sS'3155'
p359
F3.3846153846153846
sS'3154'
p360
F2.994186046511628
sS'3159'
p361
F3.3126323218066336
sS'3158'
p362
F3.5393700787401574
sS'3391'
p363
F3.976818096840531
sS'3390'
p364
F3.88351822503962
sS'3393'
p365
F2.8470149253731343
sS'3392'
p366
F2.324561403508772
sS'3395'
p367
F2.5238095238095237
sS'3394'
p368
F3.5547801814375437
sS'3397'
p369
F2.965544244322631
sS'3396'
p370
F3.055045871559633
sS'3012'
p371
F3.981117230527144
sS'3013'
p372
F3.4716591819395557
sS'3010'
p373
F3.955968688845401
sS'3011'
p374
F2.5750873108265426
sS'3016'
p375
F3.716577540106952
sS'3017'
p376
F3.708896489888088
sS'3014'
p377
F2.671111111111111
sS'3015'
p378
F2.9096314983331832
sS'3593'
p379
F4.238021935732153
sS'3592'
p380
F3.121739130434783
sS'3591'
p381
F3.257575757575758
sS'3590'
p382
F3.6244161358811042
sS'3597'
p383
F2.808080808080808
sS'3596'
p384
F3.185251798561151
sS'3595'
p385
F2.7573363431151243
sS'3258'
p386
F2.87984496124031
sS'3599'
p387
F3.5996592844974447
sS'3598'
p388
F3.2035175879396984
sS'3531'
p389
F3.0268456375838926
sS'3698'
p390
F2.369565217391304
sS'3699'
p391
F3.178041543026706
sS'3690'
p392
F3.444359171143515
sS'3691'
p393
F2.667682926829268
sS'3692'
p394
F2.9065420560747666
sS'3693'
p395
F3.1702127659574466
sS'3694'
p396
F2.8980891719745223
sS'3695'
p397
F2.3359375
sS'3696'
p398
F3.1063011063011063
sS'3697'
p399
F1.7456140350877194
sS'3089'
p400
F3.604240282685512
sS'3088'
p401
F3.0814814814814815
sS'3085'
p402
F2.9439255581403425
sS'3084'
p403
F3.1280436607892526
sS'3087'
p404
F2.9798657718120807
sS'3086'
p405
F2.873732496378561
sS'3081'
p406
F3.9118150684931505
sS'3080'
p407
F3.276923076923077
sS'3083'
p408
F2.2285714285714286
sS'3082'
p409
F3.697506644728515
sS'3878'
p410
F2.8547008547008548
sS'3879'
p411
F3.9538875554585786
sS'3870'
p412
F3.1887005649717515
sS'3871'
p413
F3.501779359430605
sS'3872'
p414
F4.021994134897361
sS'3873'
p415
F2.898230088495575
sS'3874'
p416
F2.6774193548387095
sS'3875'
p417
F3.9943919992522665
sS'3876'
p418
F3.085774058577406
sS'3877'
p419
F2.8013698630136985
sS'3526'
p420
F3.273666384419983
sS'3428'
p421
F2.8703703703703702
sS'3524'
p422
F3.8962558502340094
sS'3525'
p423
F2.7094972067039107
sS'3522'
p424
F3.0307207562032294
sS'3946'
p425
F2.603311567164179
sS'3289'
p426
F3.3399638336347195
sS'3521'
p427
F3.975780927480391
sS'3287'
p428
F2.9643347050754456
sS'3229'
p429
F3.32765737874097
sS'3285'
p430
F3.82727033082905
sS'3284'
p431
F2.5728155339805827
sS'3283'
p432
F4.02787456445993
sS'3282'
p433
F3.4347232881384837
sS'3281'
p434
F3.58974358974359
sS'3280'
p435
F2.761006289308176
sS'3885'
p436
F3.2057291666666665
sS'3884'
p437
F2.432
sS'3887'
p438
F3.645967534140685
sS'3886'
p439
F3.6006258234519106
sS'3881'
p440
F2.9277777777777776
sS'3880'
p441
F3.6452488687782805
sS'3883'
p442
F3.764940239043825
sS'3882'
p443
F3.154859967051071
sS'3445'
p444
F2.651851851851852
sS'3444'
p445
F4.5160067816894385
sS'3447'
p446
F2.3363636363636364
sS'3446'
p447
F4.1723745267173395
sS'3441'
p448
F3.136768384192096
sS'3440'
p449
F2.6728971962616823
sS'3443'
p450
F2.6527777777777777
sS'3442'
p451
F4.146037399821906
sS'3594'
p452
F2.9903846153846154
sS'3275'
p453
F2.8550372810820184
sS'3904'
p454
F3.0365853658536586
sS'3905'
p455
F3.6190659173511377
sS'3906'
p456
F3.3746736292428197
sS'3907'
p457
F3.354122621564482
sS'3900'
p458
F3.9451703564912974
sS'3901'
p459
F2.9649122807017543
sS'3902'
p460
F3.4577464788732395
sS'3903'
p461
F3.706487808993504
sS'3221'
p462
F3.6981796829125075
sS'3271'
p463
F2.875
sS'3908'
p464
F2.9130434782608696
sS'3909'
p465
F3.4323308270676693
sS'3220'
p466
F2.9062901155327343
sS'3672'
p467
F3.5246338215712383
sS'3673'
p468
F3.3596837944664033
sS'3232'
p469
F3.799285953363829
sS'3233'
p470
F3.0861244019138754
sS'3230'
p471
F2.8642857142857143
sS'3231'
p472
F3.4332298136645965
sS'3236'
p473
F2.8335704125177807
sS'3237'
p474
F3.2569204152249136
sS'3234'
p475
F3.7435897435897436
sS'3235'
p476
F2.588235294117647
sS'3238'
p477
F2.907849829351536
sS'3239'
p478
F4.051379683166455
sS'3971'
p479
F3.2364341085271318
sS'3970'
p480
F3.338316958564716
sS'3973'
p481
F3.287878787878788
sS'3972'
p482
F3.472983763641203
sS'3975'
p483
F3.3420627222761072
sS'3974'
p484
F3.9065849923430322
sS'3977'
p485
F3.1052631578947367
sS'3976'
p486
F3.337386018237082
sS'3979'
p487
F3.119047619047619
sS'3978'
p488
F2.934222222222222
sS'3629'
p489
F2.864485981308411
sS'3628'
p490
F2.8253424657534247
sS'3621'
p491
F3.2615384615384615
sS'3620'
p492
F2.9915254237288136
sS'3623'
p493
F3.4819226750261234
sS'3622'
p494
F3.361727654469106
sS'3625'
p495
F3.351815181518152
sS'3624'
p496
F3.946596092606937
sS'3627'
p497
F2.739130434782609
sS'3626'
p498
F3.4862906188424674
sS'3663'
p499
F3.1826086956521737
sS'3354'
p500
F3.845931909982689
sS'3357'
p501
F3.021857923497268
sS'3356'
p502
F3.0260416666666665
sS'3351'
p503
F2.9814814814814814
sS'3350'
p504
F2.9884786593349046
sS'3353'
p505
F2.7721518987341773
sS'3352'
p506
F3.4298245614035086
sS'3056'
p507
F2.5984251968503935
sS'3057'
p508
F3.9387608069164264
sS'3054'
p509
F3.619490781387182
sS'3055'
p510
F3.695259593679458
sS'3052'
p511
F3.613861386138614
sS'3053'
p512
F3.2857142857142856
sS'3050'
p513
F2.8045977011494254
sS'3051'
p514
F2.758909853249476
sS'3179'
p515
F2.528735632183908
sS'3826'
p516
F3.608041177041857
sS'3029'
p517
F2.517810599478714
sS'3527'
p518
F3.5053763440860215
sS'3328'
p519
F3.435483870967742
sS'3028'
p520
F3.0625
sS'3662'
p521
F4.140864714086471
sS'3983'
p522
F3.0654205607476634
sS'3523'
p523
F4.295875606528452
sS'3715'
p524
F3.389796120348377
sS'3714'
p525
F2.933422999327505
sS'3717'
p526
F3.7381489841986455
sS'3716'
p527
F3.525281710488298
sS'3742'
p528
F4.005680798899719
sS'3520'
p529
F3.265151515151515
sS'3713'
p530
F3.63393303848386
sS'3712'
p531
F3.316076294277929
sS'3496'
p532
F3.1627264353699722
sS'3497'
p533
F2.8466666666666667
sS'3494'
p534
F3.588862559241706
sS'3288'
p535
F3.7236180904522613
sS'3492'
p536
F3.282722513089005
sS'3493'
p537
F3.2222222222222223
sS'3490'
p538
F2.86144578313253
sS'3491'
p539
F3.393821022727273
sS'3171'
p540
F2.9873417721518987
sS'3658'
p541
F2.3803680981595092
sS'3021'
p542
F1.962784040078726
sS'3811'
p543
F2.7556818181818183
sS'3286'
p544
F2.3958333333333335
sS'3654'
p545
F3.302649930264993
sS'3655'
p546
F2.035211267605634
sS'3656'
p547
F3.2142857142857144
sS'3389'
p548
F3.9936608557844693
sS'3650'
p549
F3.809830979015269
sS'3651'
p550
F2.9413043478260867
sS'3652'
p551
F3.216442953020134
sS'3653'
p552
F3.2167832167832167
sS'3128'
p553
F3.5899395754790064
sS'3129'
p554
F2.8627737226277374
sS'3122'
p555
F3.0867287543655415
sS'3123'
p556
F2.601078167115903
sS'3120'
p557
F3.9458572600492205
sS'3121'
p558
F3.4343163538873993
sS'3126'
p559
F3.05
sS'3127'
p560
F2.9450726978998385
sS'3124'
p561
F3.770284079296955
sS'3125'
p562
F3.464627151051625
sS'3528'
p563
F3.3807106598984773
sS'3529'
p564
F3.2444036697247705
sS'3401'
p565
F3.216417910447761
sS'3400'
p566
F2.760330578512397
sS'3403'
p567
F3.764726264726265
sS'3402'
p568
F3.4681724845995894
sS'3405'
p569
F4.120633893919793
sS'3404'
p570
F3.6828929068150207
sS'3407'
p571
F3.0517241379310347
sS'3406'
p572
F3.360869565217391
sS'3409'
p573
F3.086206896551724
sS'3408'
p574
F3.357766143106457
sS'3448'
p575
F2.7583333333333333
sS'3049'
p576
F2.924698795180723
sS'3048'
p577
F2.810752688172043
sS'3948'
p578
F3.2522522522522523
sS'3949'
p579
F3.763590391908976
sS'3825'
p580
F3.453398577872926
sS'3824'
p581
F3.5323273803839177
sS'3823'
p582
F3.013651877133106
sS'3822'
p583
F3.338235294117647
sS'3821'
p584
F2.792307692307692
sS'3820'
p585
F2.7155425219941347
sS'3940'
p586
F3.272727272727273
sS'3941'
p587
F3.2267441860465116
sS'3942'
p588
F2.8787509313825104
sS'3943'
p589
F3.2502472799208704
sS'3944'
p590
F2.9367697594501716
sS'3945'
p591
F2.975103734439834
sS'3829'
p592
F2.848148148148148
sS'3828'
p593
F3.23459347488348
sS'3276'
p594
F3.8953344343517755
sS'3277'
p595
F3.095744680851064
sS'3274'
p596
F3.719646125686394
sS'3583'
p597
F2.816815406294035
sS'3272'
p598
F3.2191235059760954
sS'3273'
p599
F3.688581314878893
sS'3270'
p600
F3.216589861751152
sS'3040'
p601
F3.5187713310580206
sS'3278'
p602
F3.380952380952381
sS'3279'
p603
F3.5065359477124183
sS'3474'
p604
F2.876923076923077
sS'3475'
p605
F3.7268553940321345
sS'3476'
p606
F3.6422287390029324
sS'3477'
p607
F2.9681093394077447
sS'3470'
p608
F3.2798948751642576
sS'3578'
p609
F3.848101265822785
sS'3472'
p610
F2.989384288747346
sS'3473'
p611
F2.768292682926829
sS'3575'
p612
F1.4
sS'3574'
p613
F3.5886736214605066
sS'3577'
p614
F2.6050420168067228
sS'3576'
p615
F2.374269005847953
sS'3478'
p616
F3.72752079002079
sS'3570'
p617
F3.719352014010508
sS'3573'
p618
F2.3149327671620665
sS'3572'
p619
F3.131782945736434
sS'3319'
p620
F2.7815384615384615
sS'3318'
p621
F3.36281179138322
sS'3311'
p622
F2.2347417840375585
sS'3310'
p623
F3.534558823529412
sS'3313'
p624
F2.6845132743362834
sS'3312'
p625
F3.13544056906838
sS'3315'
p626
F4.032860707113734
sS'3314'
p627
F3.212063004225893
sS'3317'
p628
F2.9097744360902253
sS'3316'
p629
F2.760250173731758
sS'3610'
p630
F3.813807420024485
sS'3758'
p631
F2.9238237490664676
sS'3612'
p632
F3.9385110844817257
sS'3613'
p633
F3.2809302325581395
sS'3614'
p634
F3.076595744680851
sS'3615'
p635
F3.9063201796599296
sS'3616'
p636
F3.3063241106719365
sS'3617'
p637
F3.1404591352377667
sS'3618'
p638
F2.7864077669902914
sS'3750'
p639
F3.3078880407124682
sS'3753'
p640
F1.9402985074626866
sS'3752'
p641
F3.302127659574468
sS'3755'
p642
F3.095833333333333
sS'3754'
p643
F2.6115107913669067
sS'3757'
p644
F3.755828220858896
sS'3756'
p645
F3.0593837474930554
sS'3005'
p646
F4.164072921298355
sS'3004'
p647
F2.9176470588235293
sS'3007'
p648
F2.96958174904943
sS'3006'
p649
F2.77
sS'3001'
p650
F3.2644628099173554
sS'3000'
p651
F2.9176954732510287
sS'3168'
p652
F3.7243833968317626
sS'3169'
p653
F3.412121212121212
sS'3166'
p654
F3.5576323987538943
sS'3167'
p655
F3.6557377049180326
sS'3164'
p656
F3.717877094972067
sS'3165'
p657
F3.5809085410926684
sS'3009'
p658
F3.6733668341708543
sS'3008'
p659
F2.604651162790698
sS'3160'
p660
F3.02099609375
sS'3161'
p661
F3.0902347633249216
sS'3368'
p662
F3.533837085906435
sS'3369'
p663
F3.810667752442997
sS'3364'
p664
F3.7501368499626775
sS'3365'
p665
F3.216292134831461
sS'3366'
p666
F3.6298342541436464
sS'3367'
p667
F3.2885756676557865
sS'3360'
p668
F3.130952380952381
sS'3361'
p669
F2.0076335877862594
sS'3362'
p670
F3.496932515337423
sS'3363'
p671
F1.9125
sS'3071'
p672
F3.6176534492123844
sS'3558'
p673
F3.172727272727273
sS'3728'
p674
F3.522582193424526
sS'3729'
p675
F3.0816326530612246
sS'3724'
p676
F3.4243323442136497
sS'3725'
p677
F3.5499522445081184
sS'3726'
p678
F3.2026143790849675
sS'3727'
p679
F3.080188679245283
sS'3720'
p680
F3.3415730337078653
sS'3721'
p681
F2.800978792822186
sS'3722'
p682
F2.990521327014218
sS'3723'
p683
F3.0186915887850465
sS'3689'
p684
F3.4824080132883677
sS'3688'
p685
F2.423611111111111
sS'3683'
p686
F2.316901408450704
sS'3682'
p687
F3.234256926952141
sS'3681'
p688
F3.1258064516129034
sS'3680'
p689
F3.537187714875086
sS'3687'
p690
F3.754507628294036
sS'3686'
p691
F3.237591911764706
sS'3685'
p692
F3.7830231502496594
sS'3684'
p693
F3.8484485190409026
sS'3760'
p694
F3.6097560975609757
sS'3869'
p695
F3.467889908256881
sS'3868'
p696
F3.6653465346534655
sS'3488'
p697
F1.7277227722772277
sS'3863'
p698
F3.192461197339246
sS'3862'
p699
F2.761019649495486
sS'3861'
p700
F2.9523809523809526
sS'3860'
p701
F3.4345170578483555
sS'3867'
p702
F2.0721153846153846
sS'3866'
p703
F3.5163934426229506
sS'3865'
p704
F2.4239130434782608
sS'3864'
p705
F4.236699319034267
sS'3657'
p706
F2.5378224748578924
sS'3530'
p707
F3.651799687010955
sS'3533'
p708
F3.450190114068441
sS'3532'
p709
F3.4516717325227964
sS'3535'
p710
F3.254369081530526
sS'3534'
p711
F3.248062015503876
sS'3537'
p712
F2.65017667844523
sS'3536'
p713
F2.449771689497717
sS'3539'
p714
F3.4878048780487805
sS'3538'
p715
F3.6926129880438556
sS'3831'
p716
F2.8584070796460175
sS'3438'
p717
F4.006504065040651
sS'3439'
p718
F3.9425142135186353
sS'3430'
p719
F4.176211453744493
sS'3431'
p720
F3.9182156133828996
sS'3432'
p721
F3.271812080536913
sS'3433'
p722
F3.389224234294657
sS'3434'
p723
F3.249441804545715
sS'3435'
p724
F1.989247311827957
sS'3436'
p725
F2.221052631578947
sS'3437'
p726
F3.7540513166779204
sS'3184'
p727
F3.3910991233985164
sS'3185'
p728
F2.0735849056603772
sS'3186'
p729
F3.2171052631578947
sS'3091'
p730
F2.6646586345381524
sS'3180'
p731
F3.991304347826087
sS'3181'
p732
F3.6047516198704104
sS'3182'
p733
F3.3309215815245197
sS'3480'
p734
F3.5285171102661597
sS'3188'
p735
F2.9812925170068025
sS'3189'
p736
F1.8214285714285714
sS'3917'
p737
F3.6933601527481392
sS'3916'
p738
F2.5761904761904764
sS'3915'
p739
F3.72976501305483
sS'3914'
p740
F3.89618138424821
sS'3913'
p741
F3.699300699300699
sS'3912'
p742
F3.334814814814815
sS'3911'
p743
F2.9444444444444446
sS'3910'
p744
F3.5186721991701244
sS'3931'
p745
F3.090909090909091
sS'3919'
p746
F2.5889830508474576
sS'3918'
p747
F2.958904109589041
sS'3587'
p748
F3.4575079872204473
sS'3544'
p749
F3.827346259069823
sS'3545'
p750
F2.8663282571912014
sS'3546'
p751
F3.5084226646248085
sS'3547'
p752
F2.736111111111111
sS'3540'
p753
F2.312169312169312
sS'3228'
p754
F3.1527494908350304
sS'3542'
p755
F3.7879393636515077
sS'3543'
p756
F2.504032258064516
sS'3225'
p757
F3.2803542519760023
sS'3224'
p758
F3.6981335634912074
sS'3227'
p759
F3.020217729393468
sS'3226'
p760
F4.058312128922816
sS'3548'
p761
F3.032
sS'3549'
p762
F2.6328125
sS'3223'
p763
F3.686380315130585
sS'3222'
p764
F3.5134748652513474
sS'3988'
p765
F3.303903684786574
sS'3989'
p766
F3.3423423423423424
sS'3984'
p767
F3.674172637325145
sS'3985'
p768
F3.1186440677966103
sS'3986'
p769
F3.644646924829157
sS'3987'
p770
F3.8285714285714287
sS'3980'
p771
F2.9431818181818183
sS'3981'
p772
F2.667481662591687
sS'3982'
p773
F2.703488372093023
sS'3507'
p774
F2.856382978723404
sS'3759'
p775
F2.7001499250374814
sS'3649'
p776
F3.6496678389996093
sS'3611'
p777
F3.2144885825728027
sS'3648'
p778
F3.642530984996738
sS'3967'
p779
F3.0864197530864197
sS'3320'
p780
F3.5908801409309574
sS'3321'
p781
F3.1450676982591874
sS'3322'
p782
F2.8461538461538463
sS'3323'
p783
F3.355525965379494
sS'3324'
p784
F3.7106426385583133
sS'3325'
p785
F2.668428005284016
sS'3326'
p786
F3.1881498183640233
sS'3327'
p787
F3.0253807106598987
sS'3041'
p788
F1.7037037037037037
sS'3329'
p789
F3.5440414507772022
sS'3043'
p790
F3.073473282442748
sS'3042'
p791
F3.0085470085470085
sS'3045'
p792
F2.8045454545454547
sS'3044'
p793
F3.4055555555555554
sS'3047'
p794
F3.3291155098972687
sS'3046'
p795
F4.386773547094188
sS'3643'
p796
F4.0034364261168385
sS'3827'
p797
F3.9237288135593222
sS'3398'
p798
F3.713291139240506
sS'3642'
p799
F2.7229761347683668
sS'3751'
p800
F3.731552162849873
sS'3619'
p801
F2.9855595667870034
sS'3489'
p802
F3.658130864096366
sS'3761'
p803
F2.158974358974359
sS'3762'
p804
F3.504201680672269
sS'3763'
p805
F2.863433943592281
sS'3764'
p806
F2.5316455696202533
sS'3765'
p807
F3.3257598111537328
sS'3766'
p808
F2.8036187113857016
sS'3767'
p809
F3.081168831168831
sS'3481'
p810
F3.251167362988449
sS'3769'
p811
F4.123949579831932
sS'3483'
p812
F2.625766871165644
sS'3482'
p813
F3.9322289156626504
sS'3485'
p814
F2.8497109826589595
sS'3484'
p815
F2.869281045751634
sS'3487'
p816
F3.6128545977799096
sS'3486'
p817
F3.232394366197183
sS'3135'
p818
F3.32010582010582
sS'3134'
p819
F3.0199579831932772
sS'3137'
p820
F3.3149606299212597
sS'3136'
p821
F2.4801136363636362
sS'3131'
p822
F3.327731092436975
sS'3130'
p823
F3.145985401459854
sS'3133'
p824
F3.6884154460719043
sS'3132'
p825
F2.7125
sS'3647'
p826
F2.9223300970873787
sS'3646'
p827
F2.9572649572649574
sS'3645'
p828
F2.77027027027027
sS'3644'
p829
F2.0232558139534884
sS'3139'
p830
F3.8137566137566137
sS'3138'
p831
F3.548973716853512
sS'3641'
p832
F2.267100977198697
sS'3640'
p833
F2.86664979757085
sS'3038'
p834
F3.174927113702624
sS'3039'
p835
F3.3839907192575405
sS'3034'
p836
F3.317725752508361
sS'3035'
p837
F3.11030428769018
sS'3036'
p838
F2.9210526315789473
sS'3037'
p839
F2.7383177570093458
sS'3030'
p840
F3.5545363575717146
sS'3031'
p841
F2.4834834834834836
sS'3032'
p842
F3.939189189189189
sS'3033'
p843
F4.586363636363636
sS'3568'
p844
F3.658536585365854
sS'3299'
p845
F3.596009975062344
sS'3569'
p846
F3.8321747765640515
sS'3003'
p847
F3.5291599785981806
sS'3541'
p848
F3.8072124821185005
sS'3162'
p849
F2.6588235294117646
sS'3163'
p850
F3.869275603663614
sS'3812'
p851
F3.5861244019138754
sS'3813'
p852
F3.0621890547263684
sS'3810'
p853
F3.006124234470691
sS'3958'
p854
F4.263276836158192
sS'3816'
p855
F3.2259541984732825
sS'3817'
p856
F3.8585285569212453
sS'3814'
p857
F3.2024049935744445
sS'3815'
p858
F3.5253093363329584
sS'3953'
p859
F3.8181818181818183
sS'3952'
p860
F3.6050420168067228
sS'3818'
p861
F2.71356783919598
sS'3950'
p862
F3.826825127334465
sS'3957'
p863
F2.813698630136986
sS'3956'
p864
F3.0
sS'3955'
p865
F3.6874600127959054
sS'3954'
p866
F3.9061871064078426
sS'3261'
p867
F2.3229813664596275
sS'3260'
p868
F3.4063604240282683
sS'3263'
p869
F3.681365576102418
sS'3262'
p870
F3.286764705882353
sS'3265'
p871
F3.476910962371337
sS'3264'
p872
F2.8480492813141685
sS'3267'
p873
F3.5965318541655447
sS'3266'
p874
F3.7180277349768875
sS'3269'
p875
F4.006393180607352
sS'3268'
p876
F2.9945186707776634
sS'3508'
p877
F3.4702380952380953
sS'3509'
p878
F4.035732259687972
sS'3465'
p879
F2.8176100628930816
sS'3464'
p880
F2.638283378746594
sS'3463'
p881
F3.7355783558261315
sS'3462'
p882
F2.5604395604395602
sS'3461'
p883
F3.4346060113728676
sS'3460'
p884
F2.301775147928994
sS'3500'
p885
F3.6649692975887374
sS'3501'
p886
F3.4049586776859506
sS'3502'
p887
F3.3636363636363638
sS'3503'
p888
F3.3072289156626504
sS'3504'
p889
F3.0194805194805197
sS'3505'
p890
F2.252493765586035
sS'3469'
p891
F3.7406752695775145
sS'3468'
p892
F3.520661157024793
sS'3511'
p893
F2.7547169811320753
sS'3459'
p894
F1.8164556962025316
sS'3058'
p895
F3.8026284462644635
sS'3059'
p896
F2.590909090909091
sS'3066'
p897
F3.0103092783505154
sS'3214'
p898
F2.9166666666666665
sS'3215'
p899
F2.637213254035684
sS'3216'
p900
F3.706276493914946
sS'3217'
p901
F3.0660247592847316
sS'3210'
p902
F2.942585417400493
sS'3211'
p903
F3.935960591133005
sS'3212'
p904
F3.7547332185886404
sS'3213'
p905
F3.008771929824561
sS'3359'
p906
F2.7844827586206895
sS'3218'
p907
F3.13091922005571
sS'3219'
p908
F2.0148148148148146
sS'3358'
p909
F3.4814814814814814
sS'3603'
p910
F3.9313725490196076
sS'3602'
p911
F2.103448275862069
sS'3601'
p912
F3.102439024390244
sS'3600'
p913
F2.97289972899729
sS'3607'
p914
F2.0
sS'3606'
p915
F2.7252396166134187
sS'3605'
p916
F4.170963129268064
sS'3604'
p917
F2.821875
sS'3609'
p918
F3.7948717948717947
sS'3608'
p919
F4.129594423320659
sS'3780'
p920
F3.3505747126436782
sS'3070'
p921
F2.9617021276595743
sS'3178'
p922
F3.015267175572519
sS'3072'
p923
F3.295612009237875
sS'3073'
p924
F4.010009099181073
sS'3074'
p925
F3.4012738853503186
sS'3075'
p926
F3.4272517321016167
sS'3076'
p927
F2.851575456053068
sS'3077'
p928
F2.970964566929134
sS'3078'
p929
F4.134791215006127
sS'3170'
p930
F3.8898433552299143
sS'3173'
p931
F3.3510971786833856
sS'3172'
p932
F3.810185185185185
sS'3175'
p933
F3.2198852772466537
sS'3174'
p934
F2.7575218818380742
sS'3177'
p935
F3.690856313497823
sS'3176'
p936
F3.059483726150393
sS'3379'
p937
F3.261642085704332
sS'3378'
p938
F2.949820788530466
sS'3377'
p939
F3.2325581395348837
sS'3376'
p940
F3.517402376910017
sS'3375'
p941
F3.0194174757281553
sS'3374'
p942
F3.4844559585492227
sS'3373'
p943
F3.1875
sS'3372'
p944
F2.431472081218274
sS'3371'
p945
F3.914785733297844
sS'3370'
p946
F2.2905982905982905
sS'3788'
p947
F2.5
sS'3839'
p948
F2.5135135135135136
sS'3420'
p949
F3.3902728351126927
sS'3739'
p950
F3.8419497784342687
sS'3738'
p951
F2.3365384615384617
sS'3737'
p952
F2.5231854838709675
sS'3736'
p953
F3.5130505709624797
sS'3735'
p954
F2.8116710875331563
sS'3734'
p955
F3.1870967741935483
sS'3733'
p956
F3.848323170731707
sS'3732'
p957
F2.4358974358974357
sS'3731'
p958
F2.6818181818181817
sS'3730'
p959
F3.9527257346172027
sS'3108'
p960
F3.0671140939597317
sS'3109'
p961
F2.5076923076923077
sS'3678'
p962
F2.828457446808511
sS'3104'
p963
F2.752808988764045
sS'3105'
p964
F3.1496350364963503
sS'3106'
p965
F3.649245741373836
sS'3107'
p966
F3.4511627906976745
sS'3100'
p967
F2.835294117647059
sS'3101'
p968
F3.056105610561056
sS'3102'
p969
F3.3803324654516325
sS'3103'
p970
F2.0491803278688523
sS'3947'
p971
F2.9734513274336285
sS'3183'
p972
F3.8495083368961094
sS'3471'
p973
F3.2378138847858198
sS'3679'
p974
F3.8633818589025757
sS'3782'
p975
F3.3608732710859712
sS'3783'
p976
F3.074168797953964
sS'3429'
p977
F2.72992700729927
sS'3781'
p978
F3.123641304347826
sS'3786'
p979
F2.6
sS'3787'
p980
F3.298132646490663
sS'3784'
p981
F3.963696369636964
sS'3785'
p982
F3.1773049645390072
sS'3423'
p983
F3.893808777429467
sS'3422'
p984
F3.1696078431372547
sS'3421'
p985
F3.766153846153846
sS'3789'
p986
F3.769585253456221
sS'3427'
p987
F3.3347314578005114
sS'3426'
p988
F3.174468085106383
sS'3425'
p989
F4.2304609218436875
sS'3424'
p990
F2.3839080459770114
sS'3197'
p991
F3.2327432501273563
sS'3196'
p992
F2.63007840342124
sS'3195'
p993
F3.990049751243781
sS'3194'
p994
F3.6129032258064515
sS'3193'
p995
F1.9024390243902438
sS'3192'
p996
F2.8624757354039123
sS'3191'
p997
F2.5764705882352943
sS'3190'
p998
F3.3028688524590164
sS'3199'
p999
F2.539325842696629
sS'3198'
p1000
F3.3014339871435636
s.