(dp0
S'4048'
p1
F4.166444740346205
sS'4720'
p2
F3.722633744855967
sS'4026'
p3
F2.95610278372591
sS'4448'
p4
F3.482300884955752
sS'4024'
p5
F2.9361702127659575
sS'4025'
p6
F3.123456790123457
sS'4022'
p7
F3.096296296296296
sS'4023'
p8
F2.0642857142857145
sS'4020'
p9
F2.6448598130841123
sS'4788'
p10
F2.0838709677419356
sS'4787'
p11
F3.3114754098360657
sS'4786'
p12
F3.80343716433942
sS'4785'
p13
F3.168618266978923
sS'4784'
p14
F3.6818181818181817
sS'4783'
p15
F3.811269312329597
sS'4782'
p16
F2.5229885057471266
sS'4028'
p17
F3.7670250896057347
sS'4029'
p18
F3.7286995515695067
sS'4149'
p19
F3.3725030295922753
sS'4148'
p20
F3.5448717948717947
sS'4145'
p21
F4.166919805589307
sS'4144'
p22
F3.5019629837352775
sS'4147'
p23
F3.1312508562816825
sS'4417'
p24
F3.7349397590361444
sS'4141'
p25
F3.5417433605048645
sS'4140'
p26
F2.9575757575757575
sS'4143'
p27
F2.925373134328358
sS'4142'
p28
F3.7564102564102564
sS'4268'
p29
F3.475270479134467
sS'4831'
p30
F3.354227499837778
sS'4686'
p31
F3.0837596344042018
sS'4822'
p32
F2.9035087719298245
sS'4684'
p33
F3.636536631779258
sS'4933'
p34
F2.91812865497076
sS'4579'
p35
F3.039525691699605
sS'4934'
p36
F3.2222222222222223
sS'4171'
p37
F3.008170515097691
sS'4732'
p38
F2.022222222222222
sS'4733'
p39
F3.7512
sS'4730'
p40
F3.3752244165170557
sS'4731'
p41
F2.8222222222222224
sS'4736'
p42
F3.7262734169376066
sS'4680'
p43
F3.3313797313797315
sS'4734'
p44
F3.0084745762711864
sS'4027'
p45
F3.4364844903988185
sS'4738'
p46
F2.8292682926829267
sS'4528'
p47
F3.772039180765806
sS'4527'
p48
F3.2885714285714287
sS'4830'
p49
F4.0126964933494556
sS'4833'
p50
F3.1516308806472604
sS'4329'
p51
F2.67816091954023
sS'4328'
p52
F3.280436099333737
sS'4832'
p53
F2.9914529914529915
sS'4789'
p54
F4.389232499297161
sS'4321'
p55
F3.0395604395604394
sS'4320'
p56
F3.6259678379988087
sS'4323'
p57
F3.263247863247863
sS'4021'
p58
F2.1515151515151514
sS'4325'
p59
F3.191011235955056
sS'4324'
p60
F2.4727272727272727
sS'4327'
p61
F3.421631000578369
sS'4326'
p62
F2.7606837606837606
sS'4655'
p63
F3.397984886649874
sS'4654'
p64
F2.0
sS'4657'
p65
F3.370967741935484
sS'4656'
p66
F3.8134529216558852
sS'4651'
p67
F3.8913435527502256
sS'4521'
p68
F3.9656964656964657
sS'4653'
p69
F3.7937140327578573
sS'4652'
p70
F3.4257650674863025
sS'4556'
p71
F2.6097560975609757
sS'4557'
p72
F3.4667937718462025
sS'4554'
p73
F3.72
sS'4836'
p74
F2.86159169550173
sS'4552'
p75
F3.5602901178603807
sS'4553'
p76
F3.4145374449339205
sS'4550'
p77
F3.449760765550239
sS'4551'
p78
F3.3850415512465375
sS'4591'
p79
F3.5932138772398017
sS'4758'
p80
F2.9234972677595628
sS'4781'
p81
F2.91956610724519
sS'4780'
p82
F3.9133597883597884
sS'4215'
p83
F2.967479674796748
sS'4214'
p84
F3.395656155959702
sS'4217'
p85
F3.75
sS'4216'
p86
F3.222665222101842
sS'4211'
p87
F3.3278688524590163
sS'4210'
p88
F3.0383939774153075
sS'4213'
p89
F2.5057471264367814
sS'4212'
p90
F2.9624413145539905
sS'4196'
p91
F3.378260869565217
sS'4197'
p92
F2.634472129463139
sS'4194'
p93
F4.021943573667712
sS'4195'
p94
F3.549019607843137
sS'4192'
p95
F2.8969072164948453
sS'4193'
p96
F3.193877551020408
sS'4190'
p97
F3.0681818181818183
sS'4191'
p98
F3.8358208955223883
sS'4358'
p99
F2.8512396694214877
sS'4359'
p100
F3.033333333333333
sS'4354'
p101
F2.978290366350068
sS'4355'
p102
F2.689411582052476
sS'4356'
p103
F3.673401245048104
sS'4357'
p104
F3.0506072874493926
sS'4350'
p105
F3.9309551208285387
sS'4351'
p106
F3.378787878787879
sS'4352'
p107
F3.046313065976714
sS'4353'
p108
F4.336022390516957
sS'4813'
p109
F3.5719844357976656
sS'4812'
p110
F3.325438596491228
sS'4428'
p111
F3.428169014084507
sS'4429'
p112
F3.0727447216890593
sS'4817'
p113
F2.5902335456475583
sS'4816'
p114
F3.328071106394269
sS'4815'
p115
F3.659882005899705
sS'4548'
p116
F3.196774193548387
sS'4422'
p117
F3.0058479532163744
sS'4423'
p118
F2.3703703703703702
sS'4420'
p119
F3.1958951689295865
sS'4421'
p120
F2.4663677130044843
sS'4426'
p121
F3.529209621993127
sS'4427'
p122
F4.473692145333937
sS'4424'
p123
F3.510460251046025
sS'4425'
p124
F2.328358208955224
sS'4901'
p125
F2.859375
sS'4958'
p126
F3.051851851851852
sS'4623'
p127
F3.4887005649717513
sS'4676'
p128
F2.5824175824175826
sS'4952'
p129
F3.504201680672269
sS'4953'
p130
F3.3344709897610922
sS'4950'
p131
F2.676829268292683
sS'4951'
p132
F3.7418300017517567
sS'4956'
p133
F3.944533762057878
sS'4957'
p134
F2.9148936170212765
sS'4954'
p135
F3.8541666666666665
sS'4955'
p136
F2.9148936170212765
sS'4146'
p137
F3.3753554502369667
sS'4905'
p138
F1.9659090909090908
sS'4904'
p139
F3.5730491577861807
sS'4101'
p140
F2.369047619047619
sS'4100'
p141
F3.5450482917687762
sS'4103'
p142
F2.7877000842459982
sS'4102'
p143
F3.429193899782135
sS'4105'
p144
F3.8809135399673735
sS'4104'
p145
F3.526027397260274
sS'4107'
p146
F2.875
sS'4540'
p147
F2.656
sS'4109'
p148
F3.263238371157251
sS'4108'
p149
F3.1275720164609053
sS'4670'
p150
F2.8559804858078603
sS'4827'
p151
F2.964622641509434
sS'4776'
p152
F2.773399014778325
sS'4777'
p153
F3.338287628218547
sS'4774'
p154
F3.1387622149837133
sS'4775'
p155
F3.3323353293413174
sS'4772'
p156
F2.49957805907173
sS'4773'
p157
F3.2747464992757123
sS'4770'
p158
F3.351005484460695
sS'4771'
p159
F1.9318734793187349
sS'4778'
p160
F3.479581732483067
sS'4779'
p161
F3.3520742358078603
sS'4174'
p162
F3.095684803001876
sS'4175'
p163
F3.4262295081967213
sS'4176'
p164
F2.9482758620689653
sS'4177'
p165
F3.828151260504202
sS'4170'
p166
F2.368715083798883
sS'4078'
p167
F3.8923905943827566
sS'4172'
p168
F2.6194690265486726
sS'4173'
p169
F2.5413306451612905
sS'4075'
p170
F3.276595744680851
sS'4074'
p171
F3.223287671232877
sS'4077'
p172
F2.596875
sS'4076'
p173
F2.15625
sS'4628'
p174
F3.9778142974527526
sS'4070'
p175
F3.177358490566038
sS'4073'
p176
F3.5425531914893615
sS'4072'
p177
F3.4410396716826264
sS'4071'
p178
F3.592274678111588
sS'4683'
p179
F3.276142806704189
sS'4619'
p180
F3.210526315789474
sS'4618'
p181
F2.7875
sS'4611'
p182
F2.492957746478873
sS'4610'
p183
F3.4409799554565703
sS'4613'
p184
F3.4639830508474576
sS'4612'
p185
F3.09154420621537
sS'4615'
p186
F2.5684931506849313
sS'4614'
p187
F3.4242424242424243
sS'4617'
p188
F3.312820512820513
sS'4616'
p189
F3.6262626262626263
sS'4863'
p190
F3.0
sS'4910'
p191
F2.6968911917098444
sS'4310'
p192
F2.9504167557170335
sS'4258'
p193
F3.7640117994100293
sS'4312'
p194
F2.7408906882591095
sS'4313'
p195
F3.475177304964539
sS'4314'
p196
F2.6037735849056602
sS'4315'
p197
F3.471118780353299
sS'4316'
p198
F3.3727810650887573
sS'4317'
p199
F3.2219061166429586
sS'4318'
p200
F2.773913043478261
sS'4250'
p201
F2.9676616915422884
sS'4253'
p202
F3.8541666666666665
sS'4252'
p203
F3.4507772020725387
sS'4255'
p204
F2.2004662004662006
sS'4254'
p205
F3.531752104055088
sS'4257'
p206
F3.4072916666666666
sS'4256'
p207
F3.653565831695729
sS'4505'
p208
F2.4705882352941178
sS'4504'
p209
F3.153409090909091
sS'4507'
p210
F3.546298984034833
sS'4506'
p211
F3.923897898075954
sS'4501'
p212
F3.0436974789915965
sS'4500'
p213
F3.3294573643410854
sS'4468'
p214
F4.006958250497018
sS'4469'
p215
F1.8518518518518519
sS'4466'
p216
F1.8105263157894738
sS'4467'
p217
F3.557840616966581
sS'4464'
p218
F2.1780821917808217
sS'4465'
p219
F3.6892685531233314
sS'4509'
p220
F4.033783783783784
sS'4508'
p221
F3.73143626873211
sS'4373'
p222
F4.057471264367816
sS'4461'
p223
F3.647281921618205
sS'4851'
p224
F3.1012658227848102
sS'4668'
p225
F2.8051948051948052
sS'4669'
p226
F3.50493632851624
sS'4918'
p227
F3.4715772618094474
sS'4919'
p228
F4.080956581397628
sS'4916'
p229
F3.337328767123288
sS'4917'
p230
F2.0709677419354837
sS'4666'
p231
F3.565743944636678
sS'4915'
p232
F3.579310344827586
sS'4912'
p233
F4.0026992470521385
sS'4661'
p234
F3.252043119551681
sS'4662'
p235
F3.3568627450980393
sS'4663'
p236
F3.8776161052421765
sS'4178'
p237
F3.7027027027027026
sS'4260'
p238
F3.305349004557448
sS'4438'
p239
F3.040334481062469
sS'4188'
p240
F3.3115942028985508
sS'4263'
p241
F2.81700288184438
sS'4228'
p242
F3.4473684210526314
sS'4229'
p243
F3.7761310452418098
sS'4179'
p244
F4.064444444444445
sS'4224'
p245
F3.613787991104522
sS'4225'
p246
F3.4041681301955276
sS'4226'
p247
F2.6875
sS'4227'
p248
F3.666889363976483
sS'4220'
p249
F3.269230769230769
sS'4221'
p250
F2.9410609037328093
sS'4222'
p251
F3.0670103092783507
sS'4814'
p252
F3.671850699844479
sS'4389'
p253
F3.3796433878157504
sS'4388'
p254
F2.9523809523809526
sS'4383'
p255
F4.302888175759072
sS'4382'
p256
F3.5
sS'4381'
p257
F4.036567164179105
sS'4380'
p258
F3.2503126065704215
sS'4387'
p259
F3.554240631163708
sS'4386'
p260
F3.472233481961897
sS'4385'
p261
F3.969200524246396
sS'4384'
p262
F3.5618051013734466
sS'4981'
p263
F3.0484739676840213
sS'4980'
p264
F3.2331460674157304
sS'4868'
p265
F4.058139534883721
sS'4869'
p266
F3.463428905792861
sS'4985'
p267
F2.997826086956522
sS'4984'
p268
F3.3533333333333335
sS'4987'
p269
F3.479591836734694
sS'4180'
p270
F3.0601503759398496
sS'4989'
p271
F3.3716337522441653
sS'4988'
p272
F3.987587276958883
sS'4860'
p273
F2.4126984126984126
sS'4861'
p274
F3.1106194690265485
sS'4866'
p275
F3.271549576482312
sS'4867'
p276
F3.3982249097825026
sS'4864'
p277
F3.846084608460846
sS'4849'
p278
F3.6367760686184165
sS'4595'
p279
F3.8134576948700865
sS'4698'
p280
F3.337568812104006
sS'4030'
p281
F3.5240083507306887
sS'4033'
p282
F4.208371454711802
sS'4032'
p283
F2.75
sS'4035'
p284
F2.673076923076923
sS'4034'
p285
F2.7311827956989245
sS'4037'
p286
F3.907258064516129
sS'4036'
p287
F3.2007874015748032
sS'4039'
p288
F1.9338422391857506
sS'4038'
p289
F3.6666666666666665
sS'4846'
p290
F3.3151260504201683
sS'4737'
p291
F2.9197080291970803
sS'4138'
p292
F3.4718734304369665
sS'4139'
p293
F3.2454212454212454
sS'4847'
p294
F4.056612136352647
sS'4130'
p295
F3.0257510729613735
sS'4131'
p296
F2.8003237992444685
sS'4132'
p297
F2.606382978723404
sS'4133'
p298
F3.364406779661017
sS'4134'
p299
F3.786618444846293
sS'4135'
p300
F3.868681417521137
sS'4136'
p301
F2.5907590759075907
sS'4137'
p302
F2.968668407310705
sS'4484'
p303
F4.003918495297806
sS'4485'
p304
F3.4531446540880504
sS'4486'
p305
F2.839378238341969
sS'4487'
p306
F2.2033898305084745
sS'4480'
p307
F3.447674418604651
sS'4481'
p308
F3.2544642857142856
sS'4482'
p309
F2.7888956680902988
sS'4483'
p310
F3.3362403100775193
sS'4488'
p311
F3.5549058025621703
sS'4489'
p312
F3.5028490028490027
sS'4430'
p313
F3.1169590643274856
sS'4259'
p314
F3.8743047830923247
sS'4739'
p315
F3.548124877282545
sS'4349'
p316
F3.5338983050847457
sS'4502'
p317
F2.144230769230769
sS'4311'
p318
F3.0185185185185186
sS'4879'
p319
F3.0128205128205128
sS'4432'
p320
F3.7553639000403374
sS'4878'
p321
F3.378315649867374
sS'4044'
p322
F2.906779661016949
sS'4045'
p323
F4.153727901614143
sS'4046'
p324
F3.9757575757575756
sS'4344'
p325
F3.931972789115646
sS'4040'
p326
F3.896035486553923
sS'4728'
p327
F2.8445945945945947
sS'4042'
p328
F3.017780172413793
sS'4043'
p329
F3.5001600600501153
sS'4725'
p330
F3.640378548895899
sS'4724'
p331
F2.985074626865672
sS'4727'
p332
F4.138324255981327
sS'4726'
p333
F2.489539748953975
sS'4721'
p334
F3.995132790180933
sS'4049'
p335
F3.907756433490395
sS'4723'
p336
F3.807486631016043
sS'4722'
p337
F3.2375
sS'4251'
p338
F2.8564593301435406
sS'4689'
p339
F3.8309305373525557
sS'4319'
p340
F2.876923076923077
sS'4463'
p341
F3.629016064257028
sS'4395'
p342
F3.287878787878788
sS'4060'
p343
F3.708125115676476
sS'4620'
p344
F3.0598290598290596
sS'4621'
p345
F2.441029900332226
sS'4622'
p346
F2.606508875739645
sS'4748'
p347
F3.9893617021276597
sS'4624'
p348
F2.9787798408488064
sS'4625'
p349
F1.6977687626774849
sS'4626'
p350
F3.9766871165644173
sS'4627'
p351
F3.6532960199004973
sS'4541'
p352
F2.8341836734693877
sS'4629'
p353
F3.7075996292863764
sS'4543'
p354
F2.9884393063583814
sS'4542'
p355
F2.9482758620689653
sS'4545'
p356
F3.9439681351431517
sS'4544'
p357
F1.6221198156682028
sS'4547'
p358
F3.72890625
sS'4546'
p359
F3.3868929952728837
sS'4943'
p360
F3.2544268406337373
sS'4942'
p361
F3.257142857142857
sS'4534'
p362
F3.5430622009569377
sS'4535'
p363
F3.56144578313253
sS'4927'
p364
F2.4829396325459316
sS'4536'
p365
F3.7150415721844294
sS'4189'
p366
F3.647702407002188
sS'4261'
p367
F3.5764331210191083
sS'4262'
p368
F3.5522433864598892
sS'4537'
p369
F2.6466666666666665
sS'4264'
p370
F3.4131944444444446
sS'4265'
p371
F3.197841726618705
sS'4266'
p372
F3.7484538506760727
sS'4267'
p373
F3.341130604288499
sS'4181'
p374
F3.6509216589861753
sS'4269'
p375
F2.922125689644239
sS'4183'
p376
F2.7058823529411766
sS'4182'
p377
F2.9366391184573004
sS'4185'
p378
F4.048947849954255
sS'4184'
p379
F2.9048387096774193
sS'4187'
p380
F2.868595041322314
sS'4186'
p381
F2.1127450980392157
sS'4435'
p382
F2.3666666666666667
sS'4434'
p383
F2.9731543624161074
sS'4437'
p384
F1.7659574468085106
sS'4436'
p385
F3.0583941605839415
sS'4431'
p386
F2.897163120567376
sS'4820'
p387
F3.041957047361684
sS'4433'
p388
F3.6210526315789475
sS'4348'
p389
F4.220952380952381
sS'4347'
p390
F3.168067226890756
sS'4346'
p391
F3.100634249471459
sS'4345'
p392
F3.784559726509343
sS'4821'
p393
F2.0056818181818183
sS'4343'
p394
F3.395985401459854
sS'4342'
p395
F3.811936936936937
sS'4341'
p396
F3.3949280524291208
sS'4340'
p397
F3.7604743083003953
sS'4945'
p398
F3.611428571428571
sS'4944'
p399
F3.1226215644820297
sS'4531'
p400
F4.081782778018174
sS'4946'
p401
F3.572831423895254
sS'4941'
p402
F2.8366013071895426
sS'4940'
p403
F3.5062111801242235
sS'4828'
p404
F2.386904761904762
sS'4829'
p405
F3.746498912012498
sS'4826'
p406
F3.0261096605744124
sS'4462'
p407
F2.4285714285714284
sS'4824'
p408
F3.5553359683794468
sS'4825'
p409
F3.2131715771230502
sS'4949'
p410
F3.157164027766945
sS'4948'
p411
F3.2642521797451374
sS'4532'
p412
F2.5113636363636362
sS'4533'
p413
F3.3300277089106025
sS'4460'
p414
F3.279103750608865
sS'4322'
p415
F3.062992125984252
sS'4011'
p416
F3.9217537942664418
sS'4019'
p417
F3.0255102040816326
sS'4151'
p418
F2.840304182509506
sS'4538'
p419
F2.3225806451612905
sS'4862'
p420
F3.8324638702855127
sS'4664'
p421
F2.3451327433628317
sS'4539'
p422
F2.6721311475409837
sS'4665'
p423
F3.0919540229885056
sS'4914'
p424
F3.1278435059677716
sS'4650'
p425
F3.863157894736842
sS'4823'
p426
F3.9964513839602556
sS'4010'
p427
F3.6033700583279327
sS'4558'
p428
F3.21546170365068
sS'4660'
p429
F3.4011176284083704
sS'4559'
p430
F3.914393226716839
sS'4913'
p431
F2.872400756143667
sS'4761'
p432
F3.324243093922652
sS'4760'
p433
F2.4246575342465753
sS'4763'
p434
F2.4384615384615387
sS'4762'
p435
F2.076923076923077
sS'4765'
p436
F3.1443298969072164
sS'4764'
p437
F3.577777777777778
sS'4767'
p438
F3.366764705882353
sS'4766'
p439
F3.003623188405797
sS'4769'
p440
F3.805357142857143
sS'4768'
p441
F3.838709677419355
sS'4911'
p442
F2.479591836734694
sS'4199'
p443
F2.4128440366972477
sS'4008'
p444
F3.7536585365853656
sS'4009'
p445
F2.958715596330275
sS'4165'
p446
F2.371776504297994
sS'4164'
p447
F3.433531746031746
sS'4163'
p448
F3.755928853754941
sS'4162'
p449
F3.6666666666666665
sS'4161'
p450
F3.4669260700389106
sS'4160'
p451
F3.3586206896551722
sS'4000'
p452
F2.342857142857143
sS'4001'
p453
F3.643700787401575
sS'4002'
p454
F3.26
sS'4003'
p455
F2.3135593220338984
sS'4004'
p456
F3.8333333333333335
sS'4005'
p457
F3.6980448950036204
sS'4169'
p458
F2.6867469879518073
sS'4168'
p459
F3.99449481865285
sS'4555'
p460
F3.568527918781726
sS'4069'
p461
F3.644070927225711
sS'4596'
p462
F3.3155650319829424
sS'4129'
p463
F4.171469740634006
sS'4675'
p464
F3.5932932072227
sS'4128'
p465
F2.9672131147540983
sS'4287'
p466
F2.5818481353901452
sS'4714'
p467
F3.1926605504587156
sS'4715'
p468
F3.44954128440367
sS'4716'
p469
F3.0869565217391304
sS'4717'
p470
F3.3737201365187715
sS'4710'
p471
F3.486046511627907
sS'4711'
p472
F2.8181818181818183
sS'4712'
p473
F2.8135021097046415
sS'4713'
p474
F2.966202783300199
sS'4031'
p475
F3.1654657408620466
sS'4718'
p476
F3.132420091324201
sS'4719'
p477
F3.7707170459424644
sS'4503'
p478
F3.2136031478358627
sS'4121'
p479
F3.129032258064516
sS'4303'
p480
F2.139344262295082
sS'4302'
p481
F3.8461109612444924
sS'4301'
p482
F3.4383561643835616
sS'4300'
p483
F2.962962962962963
sS'4307'
p484
F2.748148148148148
sS'4306'
p485
F4.325245221161727
sS'4305'
p486
F3.5514950166112955
sS'4304'
p487
F3.417391304347826
sS'4309'
p488
F3.201388888888889
sS'4308'
p489
F3.7681728880157173
sS'4570'
p490
F3.3523643916340626
sS'4478'
p491
F3.6503332026656214
sS'4572'
p492
F3.2570093457943927
sS'4573'
p493
F2.7717391304347827
sS'4574'
p494
F3.0
sS'4575'
p495
F3.9604851330203443
sS'4576'
p496
F3.7049180327868854
sS'4577'
p497
F3.857711377256776
sS'4578'
p498
F2.9128586609989373
sS'4470'
p499
F3.6899038461538463
sS'4473'
p500
F3.042513863216266
sS'4472'
p501
F3.6938329476453253
sS'4475'
p502
F3.1485148514851486
sS'4474'
p503
F3.225654326809715
sS'4477'
p504
F3.7246376811594204
sS'4476'
p505
F3.8763250883392226
sS'4909'
p506
F3.8421052631578947
sS'4908'
p507
F3.3734177215189876
sS'4679'
p508
F3.958420684835779
sS'4678'
p509
F3.333986671893375
sS'4677'
p510
F3.0161263507896923
sS'4900'
p511
F2.0818505338078293
sS'4903'
p512
F2.6944444444444446
sS'4674'
p513
F3.008522727272727
sS'4673'
p514
F2.6548672566371683
sS'4672'
p515
F2.067901234567901
sS'4671'
p516
F3.4826402906742024
sS'4906'
p517
F3.399163331025973
sS'4947'
p518
F3.648
sS'4888'
p519
F2.929777777777778
sS'4889'
p520
F2.660377358490566
sS'4530'
p521
F2.5287958115183247
sS'4880'
p522
F2.2941176470588234
sS'4881'
p523
F3.636836242109172
sS'4882'
p524
F3.2091503267973858
sS'4883'
p525
F3.2756939644195437
sS'4884'
p526
F4.090377873003506
sS'4885'
p527
F3.6766169154228856
sS'4886'
p528
F3.0185076380728555
sS'4887'
p529
F3.045086705202312
sS'4659'
p530
F3.3099273607748185
sS'4239'
p531
F2.874439461883408
sS'4238'
p532
F4.554434413170473
sS'4237'
p533
F2.7034676185619584
sS'4236'
p534
F1.9411764705882353
sS'4235'
p535
F2.762237762237762
sS'4234'
p536
F3.0463576158940397
sS'4233'
p537
F3.9391304347826086
sS'4232'
p538
F3.356979405034325
sS'4090'
p539
F3.5436241610738257
sS'4230'
p540
F2.5751295336787563
sS'4875'
p541
F2.2110091743119265
sS'4874'
p542
F3.5323045082336004
sS'4877'
p543
F4.361621220552773
sS'4876'
p544
F3.3591736163760424
sS'4408'
p545
F2.056603773584906
sS'4409'
p546
F4.109546165884194
sS'4873'
p547
F2.7127659574468086
sS'4872'
p548
F2.454022988505747
sS'4404'
p549
F2.5795454545454546
sS'4405'
p550
F3.9682768565248736
sS'4406'
p551
F3.290948275862069
sS'4407'
p552
F3.7598665925514174
sS'4400'
p553
F3.1881188118811883
sS'4401'
p554
F3.6493055555555554
sS'4402'
p555
F3.3462269669494002
sS'4403'
p556
F2.8697916666666665
sS'4658'
p557
F4.016199268420136
sS'4839'
p558
F2.707070707070707
sS'4978'
p559
F4.303860674704665
sS'4979'
p560
F4.140707035351768
sS'4974'
p561
F2.4453125
sS'4975'
p562
F2.7889908256880735
sS'4976'
p563
F2.975806451612903
sS'4977'
p564
F3.568969448244414
sS'4970'
p565
F3.334290937581614
sS'4971'
p566
F3.2261753494282086
sS'4972'
p567
F3.3741678719061245
sS'4973'
p568
F3.432584269662921
sS'4759'
p569
F2.766990291262136
sS'4807'
p570
F2.9056603773584904
sS'4282'
p571
F2.90280777537797
sS'4283'
p572
F2.832558139534884
sS'4280'
p573
F4.115107913669065
sS'4281'
p574
F3.1296879473232178
sS'4286'
p575
F3.632286995515695
sS'4198'
p576
F3.3235632183908046
sS'4284'
p577
F4.097571341833637
sS'4285'
p578
F3.4699759807846275
sS'4123'
p579
F3.4506237219653606
sS'4122'
p580
F3.272173913043478
sS'4288'
p581
F3.1370882040382573
sS'4120'
p582
F3.4148936170212765
sS'4127'
p583
F2.444264327262325
sS'4126'
p584
F1.8269230769230769
sS'4125'
p585
F3.0545454545454547
sS'4124'
p586
F3.594059405940594
sS'4497'
p587
F2.715686274509804
sS'4496'
p588
F3.7630003151591556
sS'4495'
p589
F3.478827361563518
sS'4494'
p590
F2.5846153846153848
sS'4493'
p591
F3.135088544115342
sS'4492'
p592
F2.6433229979685664
sS'4491'
p593
F3.150110375275938
sS'4490'
p594
F3.168746344316631
sS'4667'
p595
F2.160839160839161
sS'4223'
p596
F2.1222222222222222
sS'4499'
p597
F2.614485981308411
sS'4498'
p598
F2.4646840148698885
sS'4219'
p599
F3.8959056845183695
sS'4218'
p600
F2.647286821705426
sS'4079'
p601
F3.6698412698412697
sS'4850'
p602
F3.6151202749140894
sS'4057'
p603
F3.1329639889196677
sS'4056'
p604
F2.9947333012974533
sS'4055'
p605
F2.9018026565464896
sS'4054'
p606
F4.02497073741709
sS'4053'
p607
F3.111111111111111
sS'4052'
p608
F2.592841163310962
sS'4051'
p609
F3.4498044328552804
sS'4050'
p610
F3.3658256880733943
sS'4750'
p611
F2.8430232558139537
sS'4751'
p612
F3.581432067577169
sS'4752'
p613
F3.6327408793264735
sS'4753'
p614
F2.5183651741882063
sS'4754'
p615
F3.012140575079872
sS'4755'
p616
F3.088888888888889
sS'4756'
p617
F2.519230769230769
sS'4757'
p618
F3.618585298196949
sS'4231'
p619
F2.402439024390244
sS'4159'
p620
F3.361326097915369
sS'4931'
p621
F2.8095923606612443
sS'4633'
p622
F4.146188769414576
sS'4632'
p623
F3.438799076212471
sS'4631'
p624
F3.7220921155347386
sS'4630'
p625
F3.0210560414642047
sS'4637'
p626
F2.618556701030928
sS'4636'
p627
F3.4326012492444087
sS'4635'
p628
F3.147806004618938
sS'4634'
p629
F3.193633952254642
sS'4639'
p630
F2.7466216216216215
sS'4638'
p631
F2.2284644194756553
sS'4363'
p632
F2.814655172413793
sS'4362'
p633
F2.0
sS'4983'
p634
F3.8990536277602525
sS'4982'
p635
F2.661290322580645
sS'4247'
p636
F3.2369267219495685
sS'4273'
p637
F3.7258771929824563
sS'4272'
p638
F3.376146788990826
sS'4271'
p639
F3.5256370656370657
sS'4270'
p640
F3.1195965417867435
sS'4277'
p641
F3.2152777777777777
sS'4276'
p642
F3.4828660436137073
sS'4275'
p643
F3.127853881278539
sS'4274'
p644
F2.9721115537848606
sS'4242'
p645
F3.3434343434343434
sS'4279'
p646
F3.0882061446977205
sS'4986'
p647
F2.20125786163522
sS'4811'
p648
F3.4414414414414414
sS'4243'
p649
F3.027027027027027
sS'4440'
p650
F2.836448598130841
sS'4441'
p651
F3.40548534552299
sS'4442'
p652
F2.945844302369312
sS'4810'
p653
F3.551219512195122
sS'4444'
p654
F3.376777251184834
sS'4445'
p655
F3.4245283018867925
sS'4446'
p656
F3.086734693877551
sS'4447'
p657
F3.597297297297297
sS'4372'
p658
F3.551436515291937
sS'4449'
p659
F3.9352306182531893
sS'4370'
p660
F2.8664146187775676
sS'4371'
p661
F2.9151943462897525
sS'4376'
p662
F3.3968253968253967
sS'4377'
p663
F2.40056134723336
sS'4374'
p664
F3.104950495049505
sS'4375'
p665
F2.4926829268292683
sS'4930'
p666
F3.4193711967545637
sS'4838'
p667
F2.933333333333333
sS'4932'
p668
F3.548263498312711
sS'4685'
p669
F3.0538782149029178
sS'4682'
p670
F4.006419608987453
sS'4935'
p671
F3.1699346405228757
sS'4529'
p672
F3.6612244897959183
sS'4681'
p673
F2.776978417266187
sS'4938'
p674
F3.096875
sS'4526'
p675
F3.0
sS'4525'
p676
F3.7914338919925514
sS'4524'
p677
F3.614813535911602
sS'4835'
p678
F2.6013071895424837
sS'4522'
p679
F3.839783821478382
sS'4688'
p680
F3.2676678445229683
sS'4520'
p681
F3.676188679245283
sS'4735'
p682
F2.4789915966386555
sS'4865'
p683
F4.108587119321019
sS'4819'
p684
F4.020188425302826
sS'4080'
p685
F3.4173148030090528
sS'4081'
p686
F2.9545454545454546
sS'4082'
p687
F2.803174603174603
sS'4818'
p688
F2.9338842975206614
sS'4084'
p689
F2.6528497409326426
sS'4085'
p690
F3.392516507703595
sS'4086'
p691
F3.358873841767641
sS'4087'
p692
F2.836734693877551
sS'4088'
p693
F3.7246963562753037
sS'4089'
p694
F3.4022674883567765
sS'4059'
p695
F2.5106382978723403
sS'4859'
p696
F3.2467532467532467
sS'4058'
p697
F2.9291338582677167
sS'4936'
p698
F2.861816130851664
sS'4999'
p699
F2.916289592760181
sS'4592'
p700
F4.013333333333334
sS'4593'
p701
F3.033613445378151
sS'4590'
p702
F3.342585652764898
sS'4959'
p703
F3.2664092664092665
sS'4848'
p704
F3.7332255456750203
sS'4597'
p705
F3.110294117647059
sS'4594'
p706
F3.635799522673031
sS'4858'
p707
F3.028985507246377
sS'4844'
p708
F3.0677966101694913
sS'4845'
p709
F3.499800239712345
sS'4598'
p710
F3.590909090909091
sS'4599'
p711
F3.714691270404542
sS'4840'
p712
F3.25
sS'4841'
p713
F2.856681890389198
sS'4842'
p714
F2.90990990990991
sS'4843'
p715
F2.762570663493008
sS'4167'
p716
F3.5028768699654775
sS'4937'
p717
F3.1463414634146343
sS'4922'
p718
F2.4048780487804877
sS'4693'
p719
F2.940028901734104
sS'4920'
p720
F3.4148471615720526
sS'4798'
p721
F3.9014161220043575
sS'4799'
p722
F2.9920978842722405
sS'4794'
p723
F3.0353982300884956
sS'4795'
p724
F2.1954022988505746
sS'4796'
p725
F2.864864864864865
sS'4797'
p726
F3.084507042253521
sS'4790'
p727
F3.6254767353165525
sS'4791'
p728
F3.6147286821705427
sS'4792'
p729
F2.934256055363322
sS'4793'
p730
F2.92274678111588
sS'4152'
p731
F3.0672268907563027
sS'4153'
p732
F2.1033333333333335
sS'4150'
p733
F3.226890756302521
sS'4018'
p734
F2.941860465116279
sS'4156'
p735
F3.7047353760445683
sS'4157'
p736
F3.3648357752933826
sS'4154'
p737
F2.8207547169811322
sS'4155'
p738
F3.6540068363083935
sS'4013'
p739
F3.6996904024767803
sS'4012'
p740
F2.972219395542892
sS'4158'
p741
F2.5384615384615383
sS'4924'
p742
F4.183971575207264
sS'4017'
p743
F3.4075
sS'4016'
p744
F1.7682926829268293
sS'4015'
p745
F2.75
sS'4014'
p746
F3.087360594795539
sS'4699'
p747
F3.708568738229755
sS'4834'
p748
F2.910299003322259
sS'4510'
p749
F2.907563025210084
sS'4939'
p750
F2.9863945578231292
sS'4511'
p751
F2.8860759493670884
sS'4523'
p752
F3.3284313725490198
sS'4439'
p753
F3.366373902132999
sS'4837'
p754
F2.35
sS'4007'
p755
F2.861557177615572
sS'4707'
p756
F3.3454545454545452
sS'4706'
p757
F3.5555555555555554
sS'4705'
p758
F3.5140597239305724
sS'4704'
p759
F3.5639810426540284
sS'4703'
p760
F2.770186335403727
sS'4702'
p761
F2.909090909090909
sS'4701'
p762
F3.126943005181347
sS'4700'
p763
F2.889273356401384
sS'4709'
p764
F3.2127885380737595
sS'4708'
p765
F2.7951807228915664
sS'4289'
p766
F3.4878868258178604
sS'4991'
p767
F3.8846918489065607
sS'4741'
p768
F2.8822525597269624
sS'4518'
p769
F3.4127659574468083
sS'4166'
p770
F3.3296812749003983
sS'4338'
p771
F2.948717948717949
sS'4339'
p772
F3.214746724036769
sS'4336'
p773
F3.007766990291262
sS'4337'
p774
F3.0618279569892475
sS'4334'
p775
F2.9699769053117784
sS'4335'
p776
F3.779
sS'4332'
p777
F2.0941176470588236
sS'4333'
p778
F3.8813364055299537
sS'4330'
p779
F3.6352114463373626
sS'4331'
p780
F3.291610284167794
sS'4563'
p781
F3.0971019947308993
sS'4562'
p782
F3.5661764705882355
sS'4561'
p783
F3.9757516973811833
sS'4560'
p784
F2.9596774193548385
sS'4567'
p785
F1.8804347826086956
sS'4566'
p786
F3.622950819672131
sS'4565'
p787
F3.6767017895969225
sS'4564'
p788
F2.7823129251700682
sS'4569'
p789
F2.9686503719447397
sS'4568'
p790
F3.248743718592965
sS'4519'
p791
F3.0235210263720598
sS'4648'
p792
F3.8400503778337534
sS'4649'
p793
F3.1870503597122304
sS'4642'
p794
F3.4076923076923076
sS'4643'
p795
F3.286472148541114
sS'4640'
p796
F4.125280374596834
sS'4641'
p797
F3.374569536423841
sS'4646'
p798
F3.2155591572123177
sS'4647'
p799
F2.815450643776824
sS'4644'
p800
F2.9966055668703326
sS'4645'
p801
F2.5
sS'4379'
p802
F2.9518518518518517
sS'4899'
p803
F2.0883190883190883
sS'4898'
p804
F3.71211022480058
sS'4893'
p805
F2.8529411764705883
sS'4892'
p806
F3.0759493670886076
sS'4891'
p807
F2.776666666666667
sS'4106'
p808
F2.767213114754098
sS'4897'
p809
F3.1840354767184036
sS'4896'
p810
F2.7183098591549295
sS'4895'
p811
F2.927749654855039
sS'4894'
p812
F3.328125
sS'4208'
p813
F3.3897637795275593
sS'4209'
p814
F3.5148279952550414
sS'4202'
p815
F1.4873949579831933
sS'4203'
p816
F3.418181818181818
sS'4200'
p817
F2.8617021276595747
sS'4201'
p818
F3.158037094281298
sS'4206'
p819
F3.2452830188679247
sS'4207'
p820
F4.286960132890365
sS'4204'
p821
F3.7822045152722445
sS'4205'
p822
F3.161290322580645
sS'4800'
p823
F2.788135593220339
sS'4801'
p824
F3.0897344713134185
sS'4802'
p825
F3.577272727272727
sS'4803'
p826
F2.9672544080604535
sS'4804'
p827
F3.4985250737463125
sS'4805'
p828
F3.850265416760786
sS'4806'
p829
F3.769230769230769
sS'4418'
p830
F3.382101990872412
sS'4808'
p831
F3.5496688741721854
sS'4809'
p832
F2.866952789699571
sS'4415'
p833
F4.037082066869301
sS'4414'
p834
F2.3627329192546584
sS'4413'
p835
F3.0074102964118565
sS'4412'
p836
F3.06090373280943
sS'4411'
p837
F3.512646793134598
sS'4410'
p838
F3.4271844660194173
sS'4969'
p839
F3.620320855614973
sS'4968'
p840
F3.73224043715847
sS'4967'
p841
F2.325
sS'4966'
p842
F2.826388888888889
sS'4965'
p843
F3.4693877551020407
sS'4964'
p844
F2.5367393800229623
sS'4963'
p845
F3.7393075356415477
sS'4962'
p846
F3.4624505928853755
sS'4961'
p847
F2.303921568627451
sS'4960'
p848
F3.5674931129476586
sS'4583'
p849
F3.306064306064306
sS'4479'
p850
F3.736853123429911
sS'4083'
p851
F3.076923076923077
sS'4116'
p852
F3.6452173913043477
sS'4117'
p853
F3.0
sS'4114'
p854
F3.1940298507462686
sS'4115'
p855
F4.309862494073021
sS'4112'
p856
F2.943502824858757
sS'4113'
p857
F2.764705882352941
sS'4110'
p858
F3.201312910284464
sS'4111'
p859
F2.8396501457725947
sS'4118'
p860
F3.939929328621908
sS'4119'
p861
F3.3005068790731356
sS'4299'
p862
F3.5577227200843438
sS'4298'
p863
F2.623717489859222
sS'4295'
p864
F3.008771929824561
sS'4294'
p865
F4.2727272727272725
sS'4297'
p866
F2.6491228070175437
sS'4296'
p867
F3.274907749077491
sS'4291'
p868
F3.4344692005242465
sS'4290'
p869
F3.380151387720774
sS'4293'
p870
F2.843220338983051
sS'4292'
p871
F3.054441260744986
sS'4902'
p872
F3.5010028078620135
sS'4852'
p873
F3.104743959210818
sS'4923'
p874
F2.8854660347551344
sS'4694'
p875
F2.1610169491525424
sS'4062'
p876
F3.2983606557377048
sS'4063'
p877
F3.9642857142857144
sS'4749'
p878
F3.731629392971246
sS'4061'
p879
F3.322766570605187
sS'4066'
p880
F2.947075208913649
sS'4067'
p881
F3.562766674152257
sS'4064'
p882
F3.230242119689356
sS'4065'
p883
F2.7794117647058822
sS'4743'
p884
F3.1375
sS'4742'
p885
F2.620967741935484
sS'4068'
p886
F2.9092702169625246
sS'4740'
p887
F3.314014091303928
sS'4747'
p888
F3.141566265060241
sS'4746'
p889
F3.0053475935828877
sS'4745'
p890
F3.2105976715911377
sS'4744'
p891
F2.888888888888889
sS'4697'
p892
F3.9617699197611493
sS'4871'
p893
F2.6649214659685865
sS'4890'
p894
F3.3455373045715415
sS'4006'
p895
F2.9358974358974357
sS'4907'
p896
F3.7880434782608696
sS'4608'
p897
F3.555133079847909
sS'4609'
p898
F3.6629270780214176
sS'4606'
p899
F4.2375
sS'4607'
p900
F3.299056603773585
sS'4604'
p901
F2.6554621848739495
sS'4605'
p902
F3.593220338983051
sS'4602'
p903
F3.6181384248210025
sS'4603'
p904
F2.7153846153846155
sS'4600'
p905
F3.1382405745062836
sS'4601'
p906
F2.8458197611292073
sS'4571'
p907
F2.5
sS'4391'
p908
F3.297560975609756
sS'4365'
p909
F2.4539007092198584
sS'4364'
p910
F3.689880488878356
sS'4367'
p911
F3.5862313697657915
sS'4366'
p912
F3.60994441012971
sS'4361'
p913
F3.789156626506024
sS'4360'
p914
F3.989435955480098
sS'4248'
p915
F3.44632469592808
sS'4249'
p916
F3.8123569794050343
sS'4246'
p917
F3.12
sS'4687'
p918
F2.247311827956989
sS'4244'
p919
F3.3841761827079937
sS'4245'
p920
F3.494949494949495
sS'4369'
p921
F3.292377831599943
sS'4368'
p922
F2.3
sS'4240'
p923
F3.319371727748691
sS'4241'
p924
F2.7606382978723403
sS'4453'
p925
F3.588235294117647
sS'4452'
p926
F2.7967806841046277
sS'4451'
p927
F2.993355481727575
sS'4450'
p928
F3.747708250298924
sS'4457'
p929
F3.59375
sS'4456'
p930
F3.3283877349159248
sS'4455'
p931
F3.5
sS'4454'
p932
F4.044727965977416
sS'4459'
p933
F3.977777777777778
sS'4458'
p934
F2.9574468085106385
sS'4691'
p935
F4.356129332402884
sS'4690'
p936
F3.2606060606060607
sS'4921'
p937
F2.9935064935064934
sS'4692'
p938
F3.671147880041365
sS'4695'
p939
F3.3608205953338697
sS'4926'
p940
F3.1805555555555554
sS'4925'
p941
F3.5555555555555554
sS'4696'
p942
F2.391812865497076
sS'4512'
p943
F2.748117469879518
sS'4513'
p944
F3.507537688442211
sS'4929'
p945
F3.3529411764705883
sS'4928'
p946
F2.0985915492957745
sS'4516'
p947
F3.6074614760746146
sS'4517'
p948
F3.050947867298578
sS'4514'
p949
F2.3587786259541983
sS'4515'
p950
F3.271225332721432
sS'4995'
p951
F2.7716662814883293
sS'4047'
p952
F2.656036446469248
sS'4471'
p953
F2.942857142857143
sS'4992'
p954
F3.0114503816793894
sS'4588'
p955
F3.3216019417475726
sS'4093'
p956
F1.8762376237623761
sS'4092'
p957
F3.353548966756514
sS'4091'
p958
F2.8722222222222222
sS'4278'
p959
F2.8605600933488913
sS'4097'
p960
F3.061224489795918
sS'4096'
p961
F2.430939226519337
sS'4095'
p962
F2.630114566284779
sS'4094'
p963
F3.5014285714285713
sS'4549'
p964
F3.5502008032128516
sS'4099'
p965
F3.2713178294573644
sS'4098'
p966
F4.315453578483513
sS'4585'
p967
F3.8823529411764706
sS'4870'
p968
F3.3506833658745654
sS'4856'
p969
F2.5779816513761467
sS'4729'
p970
F2.887323943661972
sS'4855'
p971
F3.005291005291005
sS'4041'
p972
F4.320598006644518
sS'4398'
p973
F3.208072372999304
sS'4399'
p974
F2.5314285714285716
sS'4586'
p975
F3.3767463729177862
sS'4419'
p976
F3.7198375870069604
sS'4390'
p977
F3.111171960569551
sS'4581'
p978
F3.775200713648528
sS'4392'
p979
F3.8623511630478857
sS'4393'
p980
F3.4009674331979616
sS'4394'
p981
F2.018504240555127
sS'4378'
p982
F3.476793248945148
sS'4396'
p983
F3.109389895138227
sS'4397'
p984
F3.4146341463414633
sS'4996'
p985
F3.475162499094483
sS'4997'
p986
F2.3431952662721893
sS'4994'
p987
F2.8932038834951457
sS'4443'
p988
F3.036764705882353
sS'4589'
p989
F2.7286821705426356
sS'4993'
p990
F3.5617283950617282
sS'4990'
p991
F3.7881462799495584
sS'4416'
p992
F3.010989010989011
sS'4857'
p993
F3.9900142653352355
sS'4584'
p994
F1.8088235294117647
sS'4587'
p995
F2.9466479466479467
sS'4854'
p996
F3.2333333333333334
sS'4853'
p997
F3.0806451612903225
sS'4580'
p998
F3.213389121338912
sS'4998'
p999
F3.116915422885572
sS'4582'
p1000
F2.37117903930131
s.