(dp0
S'6599'
p1
F3.542478179669932
sS'6723'
p2
F4.031362007168458
sS'6722'
p3
F3.225834797891037
sS'6721'
p4
F3.1537169828446947
sS'6720'
p5
F3.859607974535098
sS'6727'
p6
F2.3941018766756033
sS'6516'
p7
F2.9546485260770976
sS'6725'
p8
F3.5694444444444446
sS'6724'
p9
F4.062459336369551
sS'6729'
p10
F3.3896607431340873
sS'6728'
p11
F2.4113207547169813
sS'6480'
p12
F2.535
sS'6481'
p13
F2.5659163987138265
sS'6486'
p14
F3.613109596224436
sS'6955'
p15
F3.0850111856823266
sS'6956'
p16
F2.9166666666666665
sS'6060'
p17
F3.074540472305182
sS'6957'
p18
F3.3274766355140186
sS'6308'
p19
F2.65609756097561
sS'6916'
p20
F3.813392857142857
sS'6150'
p21
F3.274928774928775
sS'6098'
p22
F3.794380587484036
sS'6848'
p23
F3.2155844155844155
sS'6153'
p24
F2.7951807228915664
sS'6154'
p25
F3.697674418604651
sS'6155'
p26
F3.5253395163961576
sS'6156'
p27
F3.541436464088398
sS'6157'
p28
F3.401380966676674
sS'6158'
p29
F3.6492873218304576
sS'6090'
p30
F3.1691648822269807
sS'6840'
p31
F2.218905472636816
sS'6092'
p32
F2.6982758620689653
sS'6846'
p33
F3.54909948542024
sS'6094'
p34
F3.5170990566037736
sS'6844'
p35
F3.25049693272559
sS'6096'
p36
F3.1558366877515813
sS'6796'
p37
F3.3983691328560064
sS'6797'
p38
F4.0533140606670015
sS'6917'
p39
F3.3543046357615895
sS'6795'
p40
F3.1372867587327375
sS'6792'
p41
F3.1777777777777776
sS'6793'
p42
F3.476067270375162
sS'6790'
p43
F3.5962732919254656
sS'6658'
p44
F2.9272727272727272
sS'6657'
p45
F3.263157894736842
sS'6656'
p46
F3.5290352080475538
sS'6655'
p47
F3.952329360780065
sS'6654'
p48
F3.737864077669903
sS'6653'
p49
F3.6818181818181817
sS'6652'
p50
F3.556862745098039
sS'6798'
p51
F2.1792452830188678
sS'6300'
p52
F3.404301075268817
sS'6303'
p53
F3.981691368788143
sS'6726'
p54
F3.3004655099449853
sS'6590'
p55
F3.786357786357786
sS'6591'
p56
F3.1002892960462876
sS'6592'
p57
F2.498666666666667
sS'6593'
p58
F3.082089552238806
sS'6594'
p59
F2.678733031674208
sS'6595'
p60
F3.927350427350427
sS'6596'
p61
F3.22410048967426
sS'6988'
p62
F3.3164632776821144
sS'6598'
p63
F3.1004016064257027
sS'6049'
p64
F4.0315361139369275
sS'6985'
p65
F3.22181146025878
sS'6984'
p66
F2.435185185185185
sS'6983'
p67
F3.363205272464234
sS'6982'
p68
F3.199109131403118
sS'6981'
p69
F3.2413793103448274
sS'6980'
p70
F3.1149825783972127
sS'6385'
p71
F2.196629213483146
sS'6384'
p72
F2.398019801980198
sS'6387'
p73
F2.624735729386892
sS'6386'
p74
F3.209779541803356
sS'6381'
p75
F2.3104693140794224
sS'6380'
p76
F2.584507042253521
sS'6383'
p77
F3.328735632183908
sS'6382'
p78
F2.802721088435374
sS'6359'
p79
F2.6968973747016705
sS'6389'
p80
F3.8646379853095487
sS'6388'
p81
F3.3156028368794326
sS'6911'
p82
F3.434719517317753
sS'6847'
p83
F2.8179551122194515
sS'6478'
p84
F2.018348623853211
sS'6059'
p85
F2.7971014492753623
sS'6058'
p86
F3.140845070422535
sS'6932'
p87
F3.5191011235955054
sS'6933'
p88
F1.755813953488372
sS'6930'
p89
F3.1377352853301463
sS'6931'
p90
F3.308526780659042
sS'6936'
p91
F2.7946210268948657
sS'6937'
p92
F3.599802371541502
sS'6934'
p93
F2.7262569832402233
sS'6935'
p94
F3.8013717421124826
sS'6938'
p95
F2.838235294117647
sS'6939'
p96
F4.071748878923767
sS'6959'
p97
F3.4777402517654283
sS'6271'
p98
F3.082882882882883
sS'6270'
p99
F3.027972027972028
sS'6273'
p100
F3.34460592509782
sS'6272'
p101
F2.546511627906977
sS'6275'
p102
F3.8830703012912484
sS'6274'
p103
F4.085358382683276
sS'6277'
p104
F2.3010752688172045
sS'6276'
p105
F2.4319526627218937
sS'6503'
p106
F2.879043600562588
sS'6502'
p107
F3.4990279465370597
sS'6501'
p108
F2.8279430789133246
sS'6500'
p109
F3.6908364259206397
sS'6507'
p110
F3.3182222222222224
sS'6506'
p111
F3.0057471264367814
sS'6505'
p112
F3.6014558689717924
sS'6504'
p113
F3.669491525423729
sS'6077'
p114
F3.2465116279069766
sS'6076'
p115
F3.781443298969072
sS'6075'
p116
F3.7155963302752295
sS'6074'
p117
F3.3137254901960786
sS'6073'
p118
F3.2920969750238043
sS'6072'
p119
F3.5307094112045707
sS'6071'
p120
F2.784313725490196
sS'6070'
p121
F4.0682689849143445
sS'6370'
p122
F3.7247107683180065
sS'6371'
p123
F3.7480190174326466
sS'6372'
p124
F3.6446866485013625
sS'6373'
p125
F3.7775006927126626
sS'6374'
p126
F4.14051724137931
sS'6375'
p127
F3.6830188679245284
sS'6376'
p128
F2.9233870967741935
sS'6377'
p129
F3.41
sS'6355'
p130
F4.231007751937985
sS'6335'
p131
F3.08739837398374
sS'6799'
p132
F4.017982017982018
sS'6437'
p133
F2.848747971758102
sS'6436'
p134
F3.954486345903771
sS'6435'
p135
F2.9177215189873418
sS'6434'
p136
F3.4893617021276597
sS'6433'
p137
F2.5137614678899083
sS'6432'
p138
F3.098684210526316
sS'6431'
p139
F2.467889908256881
sS'6430'
p140
F3.1557894736842105
sS'6439'
p141
F3.9587231700605394
sS'6438'
p142
F3.686602870813397
sS'6204'
p143
F3.8380202474690663
sS'6205'
p144
F4.100889317137125
sS'6206'
p145
F3.750544548598788
sS'6207'
p146
F3.130952380952381
sS'6200'
p147
F3.3278688524590163
sS'6201'
p148
F3.694093778178539
sS'6202'
p149
F2.862704918032787
sS'6203'
p150
F3.1618037135278514
sS'6208'
p151
F1.727891156462585
sS'6209'
p152
F3.0833333333333335
sS'6571'
p153
F3.4926321138211383
sS'6808'
p154
F3.031484794275492
sS'6809'
p155
F2.5492227979274613
sS'6806'
p156
F3.7735024958402663
sS'6807'
p157
F3.826581378820185
sS'6804'
p158
F3.56178527811702
sS'6805'
p159
F2.6503067484662575
sS'6802'
p160
F2.872146118721461
sS'6803'
p161
F2.9743589743589745
sS'6800'
p162
F2.7945205479452055
sS'6801'
p163
F2.5510204081632653
sS'6613'
p164
F4.122813688212927
sS'6612'
p165
F3.6482084690553744
sS'6611'
p166
F2.6945668135095446
sS'6610'
p167
F3.8897550111358576
sS'6617'
p168
F2.8056872037914693
sS'6616'
p169
F3.3073488372093025
sS'6615'
p170
F3.861295165975781
sS'6614'
p171
F2.265139116202946
sS'6986'
p172
F2.6134969325153374
sS'6619'
p173
F3.766924564796905
sS'6618'
p174
F3.251173060999172
sS'6758'
p175
F3.6019108280254777
sS'6759'
p176
F2.1575342465753424
sS'6339'
p177
F3.70547465437788
sS'6752'
p178
F3.712871287128713
sS'6753'
p179
F2.353448275862069
sS'6750'
p180
F3.8666666666666667
sS'6751'
p181
F2.662087912087912
sS'6756'
p182
F3.99942709825265
sS'6757'
p183
F2.9702970297029703
sS'6754'
p184
F3.114553990610329
sS'6755'
p185
F3.2241379310344827
sS'6279'
p186
F3.051948051948052
sS'6891'
p187
F3.051948051948052
sS'6890'
p188
F2.2753188297074267
sS'6893'
p189
F3.273929773929774
sS'6892'
p190
F3.770053475935829
sS'6895'
p191
F2.3394495412844036
sS'6894'
p192
F3.1470588235294117
sS'6897'
p193
F2.6835443037974684
sS'6896'
p194
F3.224
sS'6899'
p195
F2.823744769874477
sS'6898'
p196
F3.8184438040345823
sS'6109'
p197
F3.1578947368421053
sS'6108'
p198
F2.9645390070921986
sS'6107'
p199
F3.0773809523809526
sS'6106'
p200
F2.89247311827957
sS'6105'
p201
F2.09375
sS'6104'
p202
F2.9454545454545453
sS'6103'
p203
F1.9785714285714286
sS'6102'
p204
F3.6646099603349493
sS'6101'
p205
F3.5480059084194977
sS'6100'
p206
F3.2167832167832167
sS'6450'
p207
F4.095810732833237
sS'6247'
p208
F3.644459551325629
sS'6976'
p209
F3.754527162977867
sS'6977'
p210
F2.585594989561587
sS'6974'
p211
F4.371846819822231
sS'6975'
p212
F1.9469026548672566
sS'6972'
p213
F3.583065392956608
sS'6973'
p214
F3.2401670727462584
sS'6970'
p215
F2.8962722852512157
sS'6555'
p216
F3.2577842612853556
sS'6978'
p217
F2.9349515494579297
sS'6979'
p218
F3.004524886877828
sS'6419'
p219
F3.024793388429752
sS'6551'
p220
F3.0076923076923077
sS'6379'
p221
F3.6443396226415095
sS'6914'
p222
F3.2408536585365852
sS'6915'
p223
F3.4274772618477742
sS'6875'
p224
F3.6563636363636363
sS'6152'
p225
F3.416393442622951
sS'6039'
p226
F3.4555555555555557
sS'6849'
p227
F3.719706108125891
sS'6414'
p228
F2.8758169934640523
sS'6033'
p229
F3.81799591002045
sS'6032'
p230
F3.500998003992016
sS'6031'
p231
F3.134831460674157
sS'6030'
p232
F3.8610088232321043
sS'6037'
p233
F3.9734554006595166
sS'6036'
p234
F4.058601134215501
sS'6035'
p235
F3.1785714285714284
sS'6034'
p236
F2.6964390681558026
sS'6912'
p237
F3.6443243243243244
sS'6411'
p238
F2.742451154529307
sS'6913'
p239
F3.5893197711379528
sS'6559'
p240
F3.0458715596330275
sS'6842'
p241
F3.1823104693140793
sS'6843'
p242
F2.682215743440233
sS'6093'
p243
F4.117329405989199
sS'6572'
p244
F3.561576354679803
sS'6573'
p245
F2.6296296296296298
sS'6570'
p246
F3.92
sS'6841'
p247
F3.6689419795221845
sS'6576'
p248
F3.2642201834862385
sS'6577'
p249
F2.950617283950617
sS'6574'
p250
F3.4346296564021013
sS'6575'
p251
F3.787550744248985
sS'6473'
p252
F2.9415723462832672
sS'6472'
p253
F3.316872427983539
sS'6578'
p254
F2.3062145005011696
sS'6470'
p255
F3.151944627554384
sS'6477'
p256
F2.8515406162464987
sS'6476'
p257
F3.797246558197747
sS'6475'
p258
F3.562819642000959
sS'6474'
p259
F2.232142857142857
sS'6248'
p260
F2.9192708333333335
sS'6249'
p261
F4.024031007751938
sS'6325'
p262
F2.8551724137931034
sS'6324'
p263
F3.8733333333333335
sS'6323'
p264
F2.738888888888889
sS'6097'
p265
F2.0
sS'6321'
p266
F3.08
sS'6320'
p267
F3.449275362318841
sS'6240'
p268
F3.9085984885342673
sS'6241'
p269
F4.052631578947368
sS'6242'
p270
F3.4682539682539684
sS'6845'
p271
F3.1260053619302948
sS'6244'
p272
F3.2
sS'6245'
p273
F3.5012048192771084
sS'6329'
p274
F3.7625392440035164
sS'6328'
p275
F2.7586368977673326
sS'6623'
p276
F3.750161186331399
sS'6794'
p277
F2.108910891089109
sS'6718'
p278
F3.4174733785091966
sS'6719'
p279
F3.6751592356687897
sS'6716'
p280
F3.4151784438666173
sS'6717'
p281
F3.5013850415512464
sS'6714'
p282
F3.673758865248227
sS'6715'
p283
F2.59958071278826
sS'6712'
p284
F2.989311163895487
sS'6713'
p285
F2.48
sS'6710'
p286
F3.506651463321931
sS'6687'
p287
F3.05526577742385
sS'6600'
p288
F2.241573033707865
sS'6659'
p289
F2.3512705530642752
sS'6168'
p290
F3.4776699029126212
sS'6791'
p291
F3.1981279251170047
sS'6532'
p292
F3.4624697336561745
sS'6928'
p293
F2.9043645699614893
sS'6855'
p294
F2.1746031746031744
sS'6854'
p295
F3.73728813559322
sS'6857'
p296
F2.917948717948718
sS'6856'
p297
F3.4552683896620278
sS'6851'
p298
F2.0204778156996586
sS'6850'
p299
F3.437607640519806
sS'6853'
p300
F3.312925170068027
sS'6852'
p301
F3.2641509433962264
sS'6859'
p302
F3.5117536945812806
sS'6858'
p303
F3.420886075949367
sS'6143'
p304
F3.049645390070922
sS'6608'
p305
F3.2001582278481013
sS'6141'
p306
F3.111111111111111
sS'6140'
p307
F2.4065040650406506
sS'6147'
p308
F2.8864298194525335
sS'6146'
p309
F2.836644591611479
sS'6145'
p310
F3.9626276247351186
sS'6144'
p311
F3.579090909090909
sS'6149'
p312
F4.077137546468402
sS'6148'
p313
F3.5261627906976742
sS'6781'
p314
F2.6
sS'6780'
p315
F3.0517241379310347
sS'6668'
p316
F2.6241610738255035
sS'6669'
p317
F3.284691629955947
sS'6785'
p318
F3.5392156862745097
sS'6784'
p319
F3.4274611398963732
sS'6787'
p320
F2.817073170731707
sS'6786'
p321
F3.968839379798284
sS'6789'
p322
F3.037037037037037
sS'6788'
p323
F3.7577374599786553
sS'6660'
p324
F2.787313432835821
sS'6661'
p325
F3.5304518664047153
sS'6666'
p326
F3.51980115990058
sS'6259'
p327
F3.2444208289054197
sS'6664'
p328
F3.9825780247969216
sS'6665'
p329
F3.0512465373961217
sS'6311'
p330
F2.824760765550239
sS'6923'
p331
F3.042611308385687
sS'6539'
p332
F3.966292134831461
sS'6583'
p333
F2.7983193277310923
sS'6582'
p334
F3.292799412196914
sS'6581'
p335
F2.9918032786885247
sS'6580'
p336
F2.9724517906336088
sS'6587'
p337
F3.839396479463537
sS'6586'
p338
F3.004816375677303
sS'6585'
p339
F2.8235712591889968
sS'6584'
p340
F3.9575148469620833
sS'6589'
p341
F2.9718543046357615
sS'6588'
p342
F3.3103015075376883
sS'6239'
p343
F3.1716965742251224
sS'6251'
p344
F4.048158640226629
sS'6289'
p345
F2.4420062695924765
sS'6730'
p346
F3.066079295154185
sS'6319'
p347
F2.7142857142857144
sS'6731'
p348
F3.543509865005192
sS'6269'
p349
F3.2035928143712575
sS'6287'
p350
F3.905046690292041
sS'6523'
p351
F3.4049519317975694
sS'6739'
p352
F4.2410037797069435
sS'6536'
p353
F3.3
sS'6537'
p354
F2.2037037037037037
sS'6534'
p355
F3.5821371610845296
sS'6535'
p356
F3.157200811359026
sS'6929'
p357
F2.852517985611511
sS'6533'
p358
F2.965009208103131
sS'6530'
p359
F2.7054794520547945
sS'6531'
p360
F2.5571955719557193
sS'6925'
p361
F3.782608695652174
sS'6924'
p362
F3.2048903878583475
sS'6927'
p363
F3.4785541555301007
sS'6926'
p364
F3.3043478260869565
sS'6921'
p365
F3.287292817679558
sS'6920'
p366
F3.7640765765765765
sS'6538'
p367
F2.7517605633802815
sS'6922'
p368
F3.18822919367384
sS'6288'
p369
F1.946808510638298
sS'6989'
p370
F3.33377090736256
sS'6043'
p371
F2.5621414913957934
sS'6284'
p372
F3.2513451191391236
sS'6285'
p373
F2.8619791666666665
sS'6286'
p374
F2.92
sS'6597'
p375
F2.7097902097902096
sS'6280'
p376
F3.6784452296819787
sS'6281'
p377
F3.747780702145693
sS'6282'
p378
F2.5414012738853504
sS'6283'
p379
F4.126144879267278
sS'6042'
p380
F3.0359030090330816
sS'6987'
p381
F2.1097560975609757
sS'6369'
p382
F3.354651162790698
sS'6368'
p383
F3.1526946107784433
sS'6046'
p384
F2.9864864864864864
sS'6047'
p385
F2.1485714285714286
sS'6044'
p386
F2.7490494296577945
sS'6045'
p387
F2.315068493150685
sS'6363'
p388
F1.7017543859649122
sS'6362'
p389
F3.603277274687365
sS'6048'
p390
F3.3475336322869955
sS'6360'
p391
F2.89247311827957
sS'6367'
p392
F3.566593886462882
sS'6366'
p393
F3.53272246139263
sS'6365'
p394
F3.590062111801242
sS'6364'
p395
F2.3863636363636362
sS'6482'
p396
F3.3577457264957267
sS'6351'
p397
F3.0943396226415096
sS'6361'
p398
F2.36231884057971
sS'6483'
p399
F3.43312101910828
sS'6402'
p400
F2.807142857142857
sS'6403'
p401
F2.0597014925373136
sS'6400'
p402
F3.3110307414104883
sS'6401'
p403
F2.3879310344827585
sS'6406'
p404
F4.0476190476190474
sS'6407'
p405
F3.916955017301038
sS'6404'
p406
F2.7293187347931873
sS'6405'
p407
F2.791044776119403
sS'6408'
p408
F3.85177639272324
sS'6409'
p409
F3.1394354148845167
sS'6217'
p410
F2.140625
sS'6216'
p411
F2.4691358024691357
sS'6215'
p412
F3.250681198910082
sS'6214'
p413
F3.0845481049562684
sS'6213'
p414
F3.2036199095022626
sS'6212'
p415
F2.712871287128713
sS'6211'
p416
F3.220779220779221
sS'6210'
p417
F2.8716216216216215
sS'6663'
p418
F2.762652705061082
sS'6331'
p419
F2.832
sS'6219'
p420
F3.652395785008947
sS'6218'
p421
F3.8360248447204968
sS'6819'
p422
F3.6875
sS'6818'
p423
F2.7880239520958083
sS'6811'
p424
F3.3149078726968173
sS'6810'
p425
F3.459612994851766
sS'6813'
p426
F2.890909090909091
sS'6812'
p427
F3.6863468634686347
sS'6815'
p428
F2.6666666666666665
sS'6814'
p429
F4.236049107142857
sS'6817'
p430
F3.9466666666666668
sS'6816'
p431
F3.45182467657849
sS'6745'
p432
F2.6363636363636362
sS'6744'
p433
F3.381570408825438
sS'6747'
p434
F3.729106628242075
sS'6746'
p435
F3.4730538922155687
sS'6741'
p436
F3.5639223560910307
sS'6740'
p437
F2.2073578595317724
sS'6628'
p438
F3.3969465648854964
sS'6629'
p439
F3.0585585585585586
sS'6626'
p440
F2.6533333333333333
sS'6627'
p441
F3.4085603112840466
sS'6624'
p442
F3.2768166089965396
sS'6625'
p443
F2.9270833333333335
sS'6749'
p444
F3.0060240963855422
sS'6748'
p445
F3.452798663324979
sS'6620'
p446
F3.285171102661597
sS'6621'
p447
F1.897810218978102
sS'6903'
p448
F3.3255813953488373
sS'6291'
p449
F3.1310452418096726
sS'6038'
p450
F2.9545454545454546
sS'6231'
p451
F3.4438781474294533
sS'6868'
p452
F3.363869132290185
sS'6869'
p453
F3.0
sS'6864'
p454
F3.110497237569061
sS'6865'
p455
F3.7555555555555555
sS'6866'
p456
F3.7348784624081404
sS'6867'
p457
F3.1682242990654204
sS'6860'
p458
F3.7768955126638977
sS'6861'
p459
F3.385941644562334
sS'6862'
p460
F4.0
sS'6863'
p461
F3.096280087527352
sS'6138'
p462
F4.1894070236039145
sS'6139'
p463
F3.704697986577181
sS'6132'
p464
F3.469939879759519
sS'6133'
p465
F3.5800669686822926
sS'6130'
p466
F2.9191011235955058
sS'6131'
p467
F3.4027072758037225
sS'6136'
p468
F2.611428571428571
sS'6137'
p469
F2.992481203007519
sS'6134'
p470
F3.679424064369276
sS'6135'
p471
F3.150943396226415
sS'6882'
p472
F4.022807459677419
sS'6961'
p473
F3.2740413421210306
sS'6960'
p474
F3.718332528569129
sS'6963'
p475
F2.6867469879518073
sS'6962'
p476
F3.0706401766004414
sS'6965'
p477
F3.1632833186231246
sS'6964'
p478
F2.982456140350877
sS'6967'
p479
F3.859342915811088
sS'6966'
p480
F2.632445375636037
sS'6969'
p481
F3.5605536332179932
sS'6968'
p482
F3.86522462562396
sS'6159'
p483
F3.140562248995984
sS'6006'
p484
F2.3333333333333335
sS'6007'
p485
F4.330870957743569
sS'6004'
p486
F2.596026490066225
sS'6005'
p487
F3.242487588189182
sS'6002'
p488
F2.993699369936994
sS'6003'
p489
F3.705454080980968
sS'6000'
p490
F3.259259259259259
sS'6001'
p491
F3.153121319199058
sS'6008'
p492
F3.095744680851064
sS'6009'
p493
F2.234848484848485
sS'6446'
p494
F3.33003300330033
sS'6447'
p495
F2.979381443298969
sS'6444'
p496
F2.89010989010989
sS'6445'
p497
F4.123067360733431
sS'6910'
p498
F3.2000851879459056
sS'6443'
p499
F2.719681908548708
sS'6440'
p500
F2.5625
sS'6441'
p501
F3.8714285714285714
sS'6918'
p502
F3.118883312421581
sS'6919'
p503
F2.6541889483065955
sS'6448'
p504
F3.110725141120278
sS'6449'
p505
F3.380633099090968
sS'6337'
p506
F3.2084147257700977
sS'6569'
p507
F3.8102372034956304
sS'6568'
p508
F2.9
sS'6565'
p509
F3.219607843137255
sS'6564'
p510
F3.621806569343066
sS'6567'
p511
F3.0525291828793772
sS'6566'
p512
F3.6012024048096194
sS'6561'
p513
F2.7531645569620253
sS'6560'
p514
F2.356828193832599
sS'6563'
p515
F2.7573529411764706
sS'6562'
p516
F3.040983606557377
sS'6312'
p517
F3.043010752688172
sS'6313'
p518
F3.2873563218390807
sS'6310'
p519
F2.970260223048327
sS'6258'
p520
F2.5
sS'6316'
p521
F3.0
sS'6317'
p522
F3.577142857142857
sS'6314'
p523
F2.8638461538461537
sS'6315'
p524
F2.879222108495394
sS'6253'
p525
F2.939189189189189
sS'6252'
p526
F2.440993788819876
sS'6318'
p527
F3.3555878084179973
sS'6250'
p528
F2.472916666666667
sS'6257'
p529
F2.203883495145631
sS'6256'
p530
F2.4
sS'6255'
p531
F2.9919799711448696
sS'6254'
p532
F3.7204545454545452
sS'6442'
p533
F1.8716981132075472
sS'6879'
p534
F2.437037037037037
sS'6151'
p535
F3.7270114942528734
sS'6467'
p536
F3.074561403508772
sS'6878'
p537
F3.5584415584415585
sS'6111'
p538
F2.716535433070866
sS'6709'
p539
F3.5644444444444443
sS'6708'
p540
F3.4363052375278453
sS'6087'
p541
F3.221324717285945
sS'6701'
p542
F3.0754912099276113
sS'6700'
p543
F2.2095238095238097
sS'6703'
p544
F1.962162162162162
sS'6702'
p545
F3.5697787991956336
sS'6705'
p546
F1.8299319727891157
sS'6704'
p547
F2.7763975155279503
sS'6707'
p548
F3.796694214876033
sS'6706'
p549
F3.273318551367332
sS'6874'
p550
F3.444031740671957
sS'6095'
p551
F3.0619946091644206
sS'6129'
p552
F2.5993690851735014
sS'6128'
p553
F2.7806451612903227
sS'6698'
p554
F3.6079136690647484
sS'6871'
p555
F3.4188376753507015
sS'6870'
p556
F2.8905109489051095
sS'6820'
p557
F3.236220472440945
sS'6821'
p558
F2.8656716417910446
sS'6822'
p559
F2.442857142857143
sS'6823'
p560
F2.8512820512820514
sS'6824'
p561
F3.356665948740039
sS'6825'
p562
F3.295
sS'6826'
p563
F3.653395010738477
sS'6827'
p564
F3.295646916565901
sS'6828'
p565
F2.6422018348623855
sS'6829'
p566
F3.617693577621538
sS'6479'
p567
F2.6013513513513513
sS'6675'
p568
F3.240625
sS'6674'
p569
F1.9102564102564104
sS'6677'
p570
F3.435656836461126
sS'6676'
p571
F3.1354838709677417
sS'6671'
p572
F3.1105904404873477
sS'6670'
p573
F3.250319924330941
sS'6673'
p574
F2.9813146089330993
sS'6672'
p575
F3.0091743119266057
sS'6176'
p576
F4.147272727272727
sS'6177'
p577
F3.547175765225623
sS'6174'
p578
F2.8103503184713374
sS'6175'
p579
F3.3433734939759034
sS'6172'
p580
F3.653412462908012
sS'6173'
p581
F3.0925553319919517
sS'6170'
p582
F1.986842105263158
sS'6171'
p583
F3.5517241379310347
sS'6690'
p584
F4.015905383360522
sS'6778'
p585
F2.8090277777777777
sS'6779'
p586
F3.023936170212766
sS'6774'
p587
F1.7692307692307692
sS'6775'
p588
F3.782906337516855
sS'6776'
p589
F3.5837651122625216
sS'6777'
p590
F3.2780082987551866
sS'6770'
p591
F1.7671232876712328
sS'6771'
p592
F3.2403255641879394
sS'6772'
p593
F3.636029411764706
sS'6773'
p594
F3.445945945945946
sS'6082'
p595
F2.8734939759036147
sS'6471'
p596
F2.798611111111111
sS'6579'
p597
F3.1693548387096775
sS'6178'
p598
F3.673469387755102
sS'6179'
p599
F2.4725274725274726
sS'6091'
p600
F3.5360501567398117
sS'6522'
p601
F4.425742574257426
sS'6490'
p602
F3.5352941176470587
sS'6327'
p603
F3.481693238042881
sS'6326'
p604
F3.8233397807865894
sS'6679'
p605
F3.6968503937007875
sS'6678'
p606
F2.677685950413223
sS'6688'
p607
F3.2188976377952754
sS'6689'
p608
F3.55607476635514
sS'6680'
p609
F3.411483253588517
sS'6681'
p610
F4.011655011655011
sS'6682'
p611
F2.574803149606299
sS'6683'
p612
F3.267391711981999
sS'6684'
p613
F3.0089285714285716
sS'6685'
p614
F3.0852713178294575
sS'6686'
p615
F4.013100436681222
sS'6322'
p616
F2.608433734939759
sS'6509'
p617
F2.9402985074626864
sS'6521'
p618
F2.690582959641256
sS'6520'
p619
F3.3349056603773586
sS'6488'
p620
F2.9157894736842107
sS'6508'
p621
F3.35804204741517
sS'6525'
p622
F2.3193473193473193
sS'6524'
p623
F3.624649518468853
sS'6527'
p624
F2.8771929824561404
sS'6526'
p625
F2.38771186440678
sS'6529'
p626
F3.5579158316633266
sS'6528'
p627
F4.092781316348195
sS'6952'
p628
F3.7685185185185186
sS'6953'
p629
F3.4636032757051867
sS'6954'
p630
F2.823529411764706
sS'6487'
p631
F4.065637065637065
sS'6484'
p632
F3.98479427549195
sS'6485'
p633
F3.643009605122732
sS'6356'
p634
F2.8754716981132074
sS'6357'
p635
F3.188579485371872
sS'6354'
p636
F2.2564102564102564
sS'6243'
p637
F3.509671925057788
sS'6352'
p638
F3.3663977218794496
sS'6353'
p639
F3.3523316062176165
sS'6350'
p640
F3.6397346178315004
sS'6298'
p641
F3.095890410958904
sS'6297'
p642
F2.7006802721088436
sS'6296'
p643
F3.615028901734104
sS'6295'
p644
F3.5884244372990355
sS'6294'
p645
F3.374456993918332
sS'6293'
p646
F2.1983471074380163
sS'6292'
p647
F4.05183199285076
sS'6358'
p648
F2.485576923076923
sS'6290'
p649
F2.9939759036144578
sS'6194'
p650
F3.2882818116462977
sS'6195'
p651
F3.191621962764279
sS'6196'
p652
F3.956663704560954
sS'6197'
p653
F2.9582172701949863
sS'6190'
p654
F3.7012952822240943
sS'6246'
p655
F3.1259259259259258
sS'6192'
p656
F2.6965699208443272
sS'6193'
p657
F2.888746475262753
sS'6055'
p658
F2.1691542288557213
sS'6054'
p659
F2.9711538461538463
sS'6057'
p660
F3.141583639223912
sS'6056'
p661
F3.05607476635514
sS'6198'
p662
F3.173501577287066
sS'6050'
p663
F3.548265364368618
sS'6053'
p664
F3.9732225300092336
sS'6052'
p665
F2.872093023255814
sS'6068'
p666
F3.3022144522144523
sS'6743'
p667
F2.9166666666666665
sS'6742'
p668
F3.4328358208955225
sS'6951'
p669
F3.0136674259681095
sS'6942'
p670
F3.3492801269697314
sS'6099'
p671
F3.9831422153918905
sS'6554'
p672
F3.262987012987013
sS'6378'
p673
F3.8406228532173117
sS'6556'
p674
F3.518716577540107
sS'6557'
p675
F3.301470588235294
sS'6550'
p676
F3.074792243767313
sS'6418'
p677
F3.2944955467951527
sS'6552'
p678
F3.130044139283963
sS'6553'
p679
F3.808351177730193
sS'6415'
p680
F3.114566284779051
sS'6622'
p681
F2.3161764705882355
sS'6417'
p682
F3.06969696969697
sS'6416'
p683
F3.354146806482364
sS'6558'
p684
F2.6867219917012446
sS'6410'
p685
F3.123076923076923
sS'6413'
p686
F3.666468135795116
sS'6412'
p687
F3.046511627906977
sS'6222'
p688
F3.5576965669988927
sS'6223'
p689
F3.469380403458213
sS'6220'
p690
F3.872858431018936
sS'6221'
p691
F3.8589151952916
sS'6226'
p692
F3.5728061716489874
sS'6227'
p693
F3.568421052631579
sS'6224'
p694
F3.1838235294117645
sS'6225'
p695
F3.517716535433071
sS'6228'
p696
F3.5911214953271027
sS'6229'
p697
F3.510582701855239
sS'6991'
p698
F3.3125
sS'6122'
p699
F3.1646815751093826
sS'6638'
p700
F3.0526315789473686
sS'6732'
p701
F2.27831715210356
sS'6733'
p702
F3.2517985611510793
sS'6734'
p703
F3.482142857142857
sS'6735'
p704
F3.4541933310879083
sS'6736'
p705
F3.799702727674447
sS'6737'
p706
F2.7869249394673123
sS'6738'
p707
F3.9651162790697674
sS'6630'
p708
F3.3541131105398456
sS'6633'
p709
F4.0886356441912
sS'6632'
p710
F3.4208856195009374
sS'6635'
p711
F3.705438066465257
sS'6634'
p712
F3.50597779675491
sS'6637'
p713
F3.2621726898939625
sS'6636'
p714
F2.176470588235294
sS'6667'
p715
F3.5735386549340036
sS'6191'
p716
F3.006912442396313
sS'6079'
p717
F3.3252032520325203
sS'6078'
p718
F2.9056603773584904
sS'6125'
p719
F4.028622540250447
sS'6124'
p720
F3.6944444444444446
sS'6127'
p721
F2.7686095505617976
sS'6126'
p722
F2.8080229226361033
sS'6121'
p723
F3.026666666666667
sS'6120'
p724
F3.208327550312283
sS'6088'
p725
F3.7942857142857145
sS'6089'
p726
F2.73109243697479
sS'6877'
p727
F3.022727272727273
sS'6876'
p728
F2.3035714285714284
sS'6084'
p729
F2.722978382706165
sS'6085'
p730
F3.993563274228807
sS'6873'
p731
F3.8444444444444446
sS'6872'
p732
F3.700829673011225
sS'6080'
p733
F2.850371010734097
sS'6081'
p734
F2.911660777385159
sS'6187'
p735
F3.5573122529644268
sS'6648'
p736
F3.415592996366039
sS'6649'
p737
F3.4846625766871164
sS'6186'
p738
F3.2222222222222223
sS'6644'
p739
F3.7518248175182483
sS'6645'
p740
F3.0093457943925235
sS'6646'
p741
F1.9380530973451326
sS'6647'
p742
F3.0019120458891013
sS'6640'
p743
F2.1656749138740996
sS'6641'
p744
F3.6177801919246786
sS'6642'
p745
F3.931551413373192
sS'6643'
p746
F2.635
sS'6902'
p747
F3.741256274589608
sS'6051'
p748
F3.873663751214772
sS'6711'
p749
F3.1052631578947367
sS'6998'
p750
F2.289855072463768
sS'6999'
p751
F2.949526813880126
sS'6994'
p752
F3.5665577107514044
sS'6995'
p753
F2.967032967032967
sS'6996'
p754
F2.964028776978417
sS'6997'
p755
F3.008871989860583
sS'6990'
p756
F3.4502923976608186
sS'6398'
p757
F3.159418509418509
sS'6992'
p758
F3.251012145748988
sS'6993'
p759
F3.0654952076677318
sS'6958'
p760
F3.177830940988836
sS'6399'
p761
F3.8385650224215246
sS'6639'
p762
F3.713197969543147
sS'6011'
p763
F4.016039051603905
sS'6010'
p764
F2.43801652892562
sS'6013'
p765
F3.0778159931212383
sS'6012'
p766
F3.8318302387267904
sS'6015'
p767
F4.182539682539683
sS'6014'
p768
F3.229570968584109
sS'6017'
p769
F3.509375
sS'6016'
p770
F3.4127988748241913
sS'6392'
p771
F2.8229166666666665
sS'6393'
p772
F2.5737704918032787
sS'6390'
p773
F2.5135135135135136
sS'6391'
p774
F2.6082474226804124
sS'6396'
p775
F3.536038441003737
sS'6397'
p776
F4.039239001189061
sS'6394'
p777
F3.1302303714151387
sS'6395'
p778
F3.411255411255411
sS'6019'
p779
F3.361764705882353
sS'6026'
p780
F3.520231213872832
sS'6971'
p781
F4.06614307342922
sS'6018'
p782
F2.925086249383933
sS'6027'
p783
F3.5243483083749307
sS'6907'
p784
F3.609375
sS'6906'
p785
F3.7238372093023258
sS'6905'
p786
F3.029673590504451
sS'6904'
p787
F3.8416351249053746
sS'6455'
p788
F2.6699507389162562
sS'6454'
p789
F3.596271186440678
sS'6901'
p790
F3.305439330543933
sS'6456'
p791
F2.8627548483341623
sS'6459'
p792
F3.011642949547219
sS'6458'
p793
F3.049608355091384
sS'6909'
p794
F3.049079754601227
sS'6908'
p795
F3.3175279040926005
sS'6266'
p796
F3.4765835795965567
sS'6267'
p797
F3.531361550229475
sS'6264'
p798
F2.738899430740038
sS'6265'
p799
F2.4395604395604398
sS'6262'
p800
F3.5480270574971815
sS'6263'
p801
F3.564941208271388
sS'6260'
p802
F3.1419753086419755
sS'6261'
p803
F2.901098901098901
sS'6510'
p804
F3.9384628137995827
sS'6511'
p805
F4.035868005738881
sS'6512'
p806
F3.9818417639429313
sS'6513'
p807
F2.758293838862559
sS'6514'
p808
F3.3429394812680115
sS'6515'
p809
F3.4077578051087984
sS'6268'
p810
F2.9154855047813433
sS'6517'
p811
F2.9722222222222223
sS'6064'
p812
F2.9483333333333333
sS'6065'
p813
F2.3404255319148937
sS'6066'
p814
F3.630502169869808
sS'6067'
p815
F3.7260273972602738
sS'6309'
p816
F3.8784346378018317
sS'6061'
p817
F2.504
sS'6062'
p818
F2.585657370517928
sS'6063'
p819
F3.4894578313253013
sS'6305'
p820
F2.2941176470588234
sS'6304'
p821
F2.484536082474227
sS'6307'
p822
F3.6553672316384183
sS'6306'
p823
F2.875195007800312
sS'6301'
p824
F2.79
sS'6069'
p825
F2.8299319727891157
sS'6651'
p826
F3.16
sS'6302'
p827
F3.029552941176471
sS'6199'
p828
F3.6224066390041494
sS'6424'
p829
F4.150186567164179
sS'6425'
p830
F2.7794117647058822
sS'6426'
p831
F4.101449275362318
sS'6427'
p832
F2.967509025270758
sS'6420'
p833
F2.7517401392111367
sS'6421'
p834
F3.236559139784946
sS'6422'
p835
F2.8778280542986425
sS'6423'
p836
F3.2118055555555554
sS'6428'
p837
F4.292463790566184
sS'6429'
p838
F3.839347079037801
sS'6299'
p839
F3.3010861328618337
sS'6833'
p840
F3.7726620864461045
sS'6832'
p841
F2.8181818181818183
sS'6831'
p842
F3.516826923076923
sS'6830'
p843
F2.8702290076335877
sS'6837'
p844
F3.2821564605918545
sS'6836'
p845
F3.690383546414675
sS'6835'
p846
F3.7836568566061364
sS'6834'
p847
F3.892385501545378
sS'6839'
p848
F2.269230769230769
sS'6838'
p849
F2.493333333333333
sS'6169'
p850
F3.2660944206008584
sS'6601'
p851
F2.9864864864864864
sS'6602'
p852
F3.843204775022957
sS'6603'
p853
F2.9881889763779528
sS'6604'
p854
F3.2425149700598803
sS'6605'
p855
F3.0428816466552315
sS'6606'
p856
F2.2764976958525347
sS'6607'
p857
F2.9098039215686273
sS'6161'
p858
F3.0505551149881045
sS'6609'
p859
F3.0577079382281225
sS'6163'
p860
F2.788793103448276
sS'6162'
p861
F3.8012749445676275
sS'6165'
p862
F3.0719530102790014
sS'6164'
p863
F2.4022988505747125
sS'6167'
p864
F3.140939597315436
sS'6166'
p865
F3.9550013702384215
sS'6769'
p866
F3.5738255033557045
sS'6768'
p867
F3.126268320180383
sS'6767'
p868
F2.844155844155844
sS'6766'
p869
F2.6459627329192545
sS'6765'
p870
F2.208955223880597
sS'6764'
p871
F3.6267605633802815
sS'6763'
p872
F3.780793319415449
sS'6762'
p873
F3.018796992481203
sS'6761'
p874
F2.512465373961219
sS'6760'
p875
F3.3011474345096343
sS'6950'
p876
F2.9508196721311477
sS'6547'
p877
F2.1356382978723403
sS'6631'
p878
F3.080420540582951
sS'6086'
p879
F3.446254071661238
sS'6546'
p880
F3.5092024539877302
sS'6886'
p881
F2.963286337937451
sS'6887'
p882
F4.014474244359302
sS'6884'
p883
F2.763888888888889
sS'6885'
p884
F2.859872611464968
sS'6650'
p885
F3.871007371007371
sS'6883'
p886
F4.104103343465046
sS'6880'
p887
F2.816479400749064
sS'6881'
p888
F3.055776892430279
sS'6888'
p889
F2.2758620689655173
sS'6889'
p890
F2.255656108597285
sS'6451'
p891
F2.9193178091177434
sS'6118'
p892
F3.303030303030303
sS'6119'
p893
F2.994835680751174
sS'6142'
p894
F4.238514548238897
sS'6114'
p895
F3.21802293828509
sS'6115'
p896
F2.794392523364486
sS'6116'
p897
F3.021276595744681
sS'6117'
p898
F3.9890259896683706
sS'6110'
p899
F3.664729386124228
sS'6453'
p900
F3.087121212121212
sS'6112'
p901
F3.264705882352941
sS'6113'
p902
F3.160604629192253
sS'6699'
p903
F3.1864864864864866
sS'6452'
p904
F3.353982300884956
sS'6160'
p905
F3.5619195046439627
sS'6693'
p906
F3.8993325534989336
sS'6692'
p907
F3.3823189537691567
sS'6691'
p908
F2.708029197080292
sS'6040'
p909
F4.076371244955911
sS'6697'
p910
F3.6518394958761933
sS'6696'
p911
F3.670391061452514
sS'6695'
p912
F3.414141414141414
sS'6694'
p913
F2.595505617977528
sS'6495'
p914
F3.1382488479262673
sS'6494'
p915
F3.3709579011592434
sS'6497'
p916
F3.234812371647271
sS'6496'
p917
F2.6619718309859155
sS'6491'
p918
F2.265957446808511
sS'6457'
p919
F2.9423076923076925
sS'6493'
p920
F3.253012048192771
sS'6492'
p921
F3.3639322916666665
sS'6123'
p922
F3.083648393194707
sS'6900'
p923
F2.612565445026178
sS'6499'
p924
F3.956476683937824
sS'6498'
p925
F2.5767029721247923
sS'6949'
p926
F2.9371584699453552
sS'6948'
p927
F2.7996031746031744
sS'6466'
p928
F2.773480662983425
sS'6943'
p929
F3.2676579925650557
sS'6041'
p930
F2.5669291338582676
sS'6941'
p931
F3.623134328358209
sS'6940'
p932
F3.316742081447964
sS'6947'
p933
F3.7649769585253456
sS'6946'
p934
F3.4783808647654095
sS'6945'
p935
F3.213953488372093
sS'6944'
p936
F3.4339622641509435
sS'6341'
p937
F2.1
sS'6340'
p938
F2.466292134831461
sS'6343'
p939
F3.221393674466444
sS'6342'
p940
F1.849785407725322
sS'6345'
p941
F2.572844191440017
sS'6344'
p942
F3.7319148936170214
sS'6347'
p943
F2.989338181103523
sS'6346'
p944
F2.298611111111111
sS'6349'
p945
F3.3333333333333335
sS'6348'
p946
F2.6411290322580645
sS'6028'
p947
F3.7839135654261704
sS'6029'
p948
F4.115429254739212
sS'6185'
p949
F2.8883495145631066
sS'6184'
p950
F2.7365269461077846
sS'6183'
p951
F2.86231884057971
sS'6182'
p952
F3.0219298245614037
sS'6181'
p953
F2.7325102880658436
sS'6180'
p954
F3.1367636092468305
sS'6020'
p955
F3.00747198007472
sS'6021'
p956
F3.3503706593835347
sS'6022'
p957
F1.7419354838709677
sS'6023'
p958
F3.8768267223382047
sS'6024'
p959
F3.306878306878307
sS'6025'
p960
F3.8333333333333335
sS'6189'
p961
F2.780701754385965
sS'6188'
p962
F2.93008356545961
sS'6518'
p963
F3.1828442437923252
sS'6519'
p964
F3.365217391304348
sS'6783'
p965
F2.728033472803347
sS'6782'
p966
F2.7944134078212293
sS'6278'
p967
F3.149161196207148
sS'6083'
p968
F3.894896412329459
sS'6468'
p969
F3.0582959641255605
sS'6469'
p970
F2.854014598540146
sS'6545'
p971
F3.745226130653266
sS'6544'
p972
F3.2766373411534704
sS'6543'
p973
F3.45
sS'6542'
p974
F3.022073314938904
sS'6541'
p975
F3.6420454545454546
sS'6540'
p976
F3.2357723577235773
sS'6460'
p977
F3.2
sS'6461'
p978
F2.404255319148936
sS'6462'
p979
F3.5268249780123133
sS'6463'
p980
F2.2483660130718954
sS'6464'
p981
F3.399756986634265
sS'6465'
p982
F3.3465346534653464
sS'6549'
p983
F3.458563535911602
sS'6548'
p984
F3.58
sS'6334'
p985
F3.068117068117068
sS'6662'
p986
F2.9517241379310346
sS'6336'
p987
F3.5175660240213213
sS'6489'
p988
F3.0317460317460316
sS'6330'
p989
F3.2421364985163206
sS'6238'
p990
F1.96
sS'6332'
p991
F1.75
sS'6333'
p992
F3.6461218836565097
sS'6235'
p993
F3.8246241748488377
sS'6234'
p994
F3.314572192513369
sS'6237'
p995
F3.280717692482398
sS'6236'
p996
F3.4207389749702024
sS'6338'
p997
F2.6144278606965172
sS'6230'
p998
F2.947674418604651
sS'6233'
p999
F3.6608695652173915
sS'6232'
p1000
F1.905759162303665
s.